
STM32-Drone-Project.elf:     file format elf32-littlearm

Sections:
Idx Name          Size      VMA       LMA       File off  Algn
  0 .isr_vector   00000198  08000000  08000000  00001000  2**0
                  CONTENTS, ALLOC, LOAD, READONLY, DATA
  1 .text         00004598  08000198  08000198  00001198  2**2
                  CONTENTS, ALLOC, LOAD, READONLY, CODE
  2 .rodata       0000012c  08004730  08004730  00005730  2**2
                  CONTENTS, ALLOC, LOAD, READONLY, DATA
  3 .ARM.extab    00000000  0800485c  0800485c  00006060  2**0
                  CONTENTS, READONLY
  4 .ARM          00000008  0800485c  0800485c  0000585c  2**2
                  CONTENTS, ALLOC, LOAD, READONLY, DATA
  5 .preinit_array 00000000  08004864  08004864  00006060  2**0
                  CONTENTS, ALLOC, LOAD, DATA
  6 .init_array   00000004  08004864  08004864  00005864  2**2
                  CONTENTS, ALLOC, LOAD, READONLY, DATA
  7 .fini_array   00000004  08004868  08004868  00005868  2**2
                  CONTENTS, ALLOC, LOAD, READONLY, DATA
  8 .data         00000060  20000000  0800486c  00006000  2**2
                  CONTENTS, ALLOC, LOAD, DATA
  9 .bss          00000464  20000060  080048cc  00006060  2**2
                  ALLOC
 10 ._user_heap_stack 00000604  200004c4  080048cc  000064c4  2**0
                  ALLOC
 11 .ARM.attributes 00000030  00000000  00000000  00006060  2**0
                  CONTENTS, READONLY
 12 .comment      00000043  00000000  00000000  00006090  2**0
                  CONTENTS, READONLY
 13 .debug_frame  00000428  00000000  00000000  000060d4  2**2
                  CONTENTS, READONLY, DEBUGGING, OCTETS

Disassembly of section .text:

08000198 <__do_global_dtors_aux>:
 8000198:	b510      	push	{r4, lr}
 800019a:	4c05      	ldr	r4, [pc, #20]	@ (80001b0 <__do_global_dtors_aux+0x18>)
 800019c:	7823      	ldrb	r3, [r4, #0]
 800019e:	b933      	cbnz	r3, 80001ae <__do_global_dtors_aux+0x16>
 80001a0:	4b04      	ldr	r3, [pc, #16]	@ (80001b4 <__do_global_dtors_aux+0x1c>)
 80001a2:	b113      	cbz	r3, 80001aa <__do_global_dtors_aux+0x12>
 80001a4:	4804      	ldr	r0, [pc, #16]	@ (80001b8 <__do_global_dtors_aux+0x20>)
 80001a6:	f3af 8000 	nop.w
 80001aa:	2301      	movs	r3, #1
 80001ac:	7023      	strb	r3, [r4, #0]
 80001ae:	bd10      	pop	{r4, pc}
 80001b0:	20000060 	.word	0x20000060
 80001b4:	00000000 	.word	0x00000000
 80001b8:	08004718 	.word	0x08004718

080001bc <frame_dummy>:
 80001bc:	b508      	push	{r3, lr}
 80001be:	4b03      	ldr	r3, [pc, #12]	@ (80001cc <frame_dummy+0x10>)
 80001c0:	b11b      	cbz	r3, 80001ca <frame_dummy+0xe>
 80001c2:	4903      	ldr	r1, [pc, #12]	@ (80001d0 <frame_dummy+0x14>)
 80001c4:	4803      	ldr	r0, [pc, #12]	@ (80001d4 <frame_dummy+0x18>)
 80001c6:	f3af 8000 	nop.w
 80001ca:	bd08      	pop	{r3, pc}
 80001cc:	00000000 	.word	0x00000000
 80001d0:	20000064 	.word	0x20000064
 80001d4:	08004718 	.word	0x08004718

080001d8 <strlen>:
 80001d8:	4603      	mov	r3, r0
 80001da:	f813 2b01 	ldrb.w	r2, [r3], #1
 80001de:	2a00      	cmp	r2, #0
 80001e0:	d1fb      	bne.n	80001da <strlen+0x2>
 80001e2:	1a18      	subs	r0, r3, r0
 80001e4:	3801      	subs	r0, #1
 80001e6:	4770      	bx	lr

080001e8 <__aeabi_uldivmod>:
 80001e8:	b953      	cbnz	r3, 8000200 <__aeabi_uldivmod+0x18>
 80001ea:	b94a      	cbnz	r2, 8000200 <__aeabi_uldivmod+0x18>
 80001ec:	2900      	cmp	r1, #0
 80001ee:	bf08      	it	eq
 80001f0:	2800      	cmpeq	r0, #0
 80001f2:	bf1c      	itt	ne
 80001f4:	f04f 31ff 	movne.w	r1, #4294967295
 80001f8:	f04f 30ff 	movne.w	r0, #4294967295
 80001fc:	f000 b988 	b.w	8000510 <__aeabi_idiv0>
 8000200:	f1ad 0c08 	sub.w	ip, sp, #8
 8000204:	e96d ce04 	strd	ip, lr, [sp, #-16]!
 8000208:	f000 f806 	bl	8000218 <__udivmoddi4>
 800020c:	f8dd e004 	ldr.w	lr, [sp, #4]
 8000210:	e9dd 2302 	ldrd	r2, r3, [sp, #8]
 8000214:	b004      	add	sp, #16
 8000216:	4770      	bx	lr

08000218 <__udivmoddi4>:
 8000218:	e92d 47f0 	stmdb	sp!, {r4, r5, r6, r7, r8, r9, sl, lr}
 800021c:	9d08      	ldr	r5, [sp, #32]
 800021e:	468e      	mov	lr, r1
 8000220:	4604      	mov	r4, r0
 8000222:	4688      	mov	r8, r1
 8000224:	2b00      	cmp	r3, #0
 8000226:	d14a      	bne.n	80002be <__udivmoddi4+0xa6>
 8000228:	428a      	cmp	r2, r1
 800022a:	4617      	mov	r7, r2
 800022c:	d962      	bls.n	80002f4 <__udivmoddi4+0xdc>
 800022e:	fab2 f682 	clz	r6, r2
 8000232:	b14e      	cbz	r6, 8000248 <__udivmoddi4+0x30>
 8000234:	f1c6 0320 	rsb	r3, r6, #32
 8000238:	fa01 f806 	lsl.w	r8, r1, r6
 800023c:	fa20 f303 	lsr.w	r3, r0, r3
 8000240:	40b7      	lsls	r7, r6
 8000242:	ea43 0808 	orr.w	r8, r3, r8
 8000246:	40b4      	lsls	r4, r6
 8000248:	ea4f 4e17 	mov.w	lr, r7, lsr #16
 800024c:	fa1f fc87 	uxth.w	ip, r7
 8000250:	fbb8 f1fe 	udiv	r1, r8, lr
 8000254:	0c23      	lsrs	r3, r4, #16
 8000256:	fb0e 8811 	mls	r8, lr, r1, r8
 800025a:	ea43 4308 	orr.w	r3, r3, r8, lsl #16
 800025e:	fb01 f20c 	mul.w	r2, r1, ip
 8000262:	429a      	cmp	r2, r3
 8000264:	d909      	bls.n	800027a <__udivmoddi4+0x62>
 8000266:	18fb      	adds	r3, r7, r3
 8000268:	f101 30ff 	add.w	r0, r1, #4294967295
 800026c:	f080 80ea 	bcs.w	8000444 <__udivmoddi4+0x22c>
 8000270:	429a      	cmp	r2, r3
 8000272:	f240 80e7 	bls.w	8000444 <__udivmoddi4+0x22c>
 8000276:	3902      	subs	r1, #2
 8000278:	443b      	add	r3, r7
 800027a:	1a9a      	subs	r2, r3, r2
 800027c:	b2a3      	uxth	r3, r4
 800027e:	fbb2 f0fe 	udiv	r0, r2, lr
 8000282:	fb0e 2210 	mls	r2, lr, r0, r2
 8000286:	ea43 4302 	orr.w	r3, r3, r2, lsl #16
 800028a:	fb00 fc0c 	mul.w	ip, r0, ip
 800028e:	459c      	cmp	ip, r3
 8000290:	d909      	bls.n	80002a6 <__udivmoddi4+0x8e>
 8000292:	18fb      	adds	r3, r7, r3
 8000294:	f100 32ff 	add.w	r2, r0, #4294967295
 8000298:	f080 80d6 	bcs.w	8000448 <__udivmoddi4+0x230>
 800029c:	459c      	cmp	ip, r3
 800029e:	f240 80d3 	bls.w	8000448 <__udivmoddi4+0x230>
 80002a2:	443b      	add	r3, r7
 80002a4:	3802      	subs	r0, #2
 80002a6:	ea40 4001 	orr.w	r0, r0, r1, lsl #16
 80002aa:	eba3 030c 	sub.w	r3, r3, ip
 80002ae:	2100      	movs	r1, #0
 80002b0:	b11d      	cbz	r5, 80002ba <__udivmoddi4+0xa2>
 80002b2:	40f3      	lsrs	r3, r6
 80002b4:	2200      	movs	r2, #0
 80002b6:	e9c5 3200 	strd	r3, r2, [r5]
 80002ba:	e8bd 87f0 	ldmia.w	sp!, {r4, r5, r6, r7, r8, r9, sl, pc}
 80002be:	428b      	cmp	r3, r1
 80002c0:	d905      	bls.n	80002ce <__udivmoddi4+0xb6>
 80002c2:	b10d      	cbz	r5, 80002c8 <__udivmoddi4+0xb0>
 80002c4:	e9c5 0100 	strd	r0, r1, [r5]
 80002c8:	2100      	movs	r1, #0
 80002ca:	4608      	mov	r0, r1
 80002cc:	e7f5      	b.n	80002ba <__udivmoddi4+0xa2>
 80002ce:	fab3 f183 	clz	r1, r3
 80002d2:	2900      	cmp	r1, #0
 80002d4:	d146      	bne.n	8000364 <__udivmoddi4+0x14c>
 80002d6:	4573      	cmp	r3, lr
 80002d8:	d302      	bcc.n	80002e0 <__udivmoddi4+0xc8>
 80002da:	4282      	cmp	r2, r0
 80002dc:	f200 8105 	bhi.w	80004ea <__udivmoddi4+0x2d2>
 80002e0:	1a84      	subs	r4, r0, r2
 80002e2:	eb6e 0203 	sbc.w	r2, lr, r3
 80002e6:	2001      	movs	r0, #1
 80002e8:	4690      	mov	r8, r2
 80002ea:	2d00      	cmp	r5, #0
 80002ec:	d0e5      	beq.n	80002ba <__udivmoddi4+0xa2>
 80002ee:	e9c5 4800 	strd	r4, r8, [r5]
 80002f2:	e7e2      	b.n	80002ba <__udivmoddi4+0xa2>
 80002f4:	2a00      	cmp	r2, #0
 80002f6:	f000 8090 	beq.w	800041a <__udivmoddi4+0x202>
 80002fa:	fab2 f682 	clz	r6, r2
 80002fe:	2e00      	cmp	r6, #0
 8000300:	f040 80a4 	bne.w	800044c <__udivmoddi4+0x234>
 8000304:	1a8a      	subs	r2, r1, r2
 8000306:	0c03      	lsrs	r3, r0, #16
 8000308:	ea4f 4e17 	mov.w	lr, r7, lsr #16
 800030c:	b280      	uxth	r0, r0
 800030e:	b2bc      	uxth	r4, r7
 8000310:	2101      	movs	r1, #1
 8000312:	fbb2 fcfe 	udiv	ip, r2, lr
 8000316:	fb0e 221c 	mls	r2, lr, ip, r2
 800031a:	ea43 4302 	orr.w	r3, r3, r2, lsl #16
 800031e:	fb04 f20c 	mul.w	r2, r4, ip
 8000322:	429a      	cmp	r2, r3
 8000324:	d907      	bls.n	8000336 <__udivmoddi4+0x11e>
 8000326:	18fb      	adds	r3, r7, r3
 8000328:	f10c 38ff 	add.w	r8, ip, #4294967295
 800032c:	d202      	bcs.n	8000334 <__udivmoddi4+0x11c>
 800032e:	429a      	cmp	r2, r3
 8000330:	f200 80e0 	bhi.w	80004f4 <__udivmoddi4+0x2dc>
 8000334:	46c4      	mov	ip, r8
 8000336:	1a9b      	subs	r3, r3, r2
 8000338:	fbb3 f2fe 	udiv	r2, r3, lr
 800033c:	fb0e 3312 	mls	r3, lr, r2, r3
 8000340:	ea40 4303 	orr.w	r3, r0, r3, lsl #16
 8000344:	fb02 f404 	mul.w	r4, r2, r4
 8000348:	429c      	cmp	r4, r3
 800034a:	d907      	bls.n	800035c <__udivmoddi4+0x144>
 800034c:	18fb      	adds	r3, r7, r3
 800034e:	f102 30ff 	add.w	r0, r2, #4294967295
 8000352:	d202      	bcs.n	800035a <__udivmoddi4+0x142>
 8000354:	429c      	cmp	r4, r3
 8000356:	f200 80ca 	bhi.w	80004ee <__udivmoddi4+0x2d6>
 800035a:	4602      	mov	r2, r0
 800035c:	1b1b      	subs	r3, r3, r4
 800035e:	ea42 400c 	orr.w	r0, r2, ip, lsl #16
 8000362:	e7a5      	b.n	80002b0 <__udivmoddi4+0x98>
 8000364:	f1c1 0620 	rsb	r6, r1, #32
 8000368:	408b      	lsls	r3, r1
 800036a:	fa22 f706 	lsr.w	r7, r2, r6
 800036e:	431f      	orrs	r7, r3
 8000370:	fa0e f401 	lsl.w	r4, lr, r1
 8000374:	fa20 f306 	lsr.w	r3, r0, r6
 8000378:	fa2e fe06 	lsr.w	lr, lr, r6
 800037c:	ea4f 4917 	mov.w	r9, r7, lsr #16
 8000380:	4323      	orrs	r3, r4
 8000382:	fa00 f801 	lsl.w	r8, r0, r1
 8000386:	fa1f fc87 	uxth.w	ip, r7
 800038a:	fbbe f0f9 	udiv	r0, lr, r9
 800038e:	0c1c      	lsrs	r4, r3, #16
 8000390:	fb09 ee10 	mls	lr, r9, r0, lr
 8000394:	ea44 440e 	orr.w	r4, r4, lr, lsl #16
 8000398:	fb00 fe0c 	mul.w	lr, r0, ip
 800039c:	45a6      	cmp	lr, r4
 800039e:	fa02 f201 	lsl.w	r2, r2, r1
 80003a2:	d909      	bls.n	80003b8 <__udivmoddi4+0x1a0>
 80003a4:	193c      	adds	r4, r7, r4
 80003a6:	f100 3aff 	add.w	sl, r0, #4294967295
 80003aa:	f080 809c 	bcs.w	80004e6 <__udivmoddi4+0x2ce>
 80003ae:	45a6      	cmp	lr, r4
 80003b0:	f240 8099 	bls.w	80004e6 <__udivmoddi4+0x2ce>
 80003b4:	3802      	subs	r0, #2
 80003b6:	443c      	add	r4, r7
 80003b8:	eba4 040e 	sub.w	r4, r4, lr
 80003bc:	fa1f fe83 	uxth.w	lr, r3
 80003c0:	fbb4 f3f9 	udiv	r3, r4, r9
 80003c4:	fb09 4413 	mls	r4, r9, r3, r4
 80003c8:	ea4e 4404 	orr.w	r4, lr, r4, lsl #16
 80003cc:	fb03 fc0c 	mul.w	ip, r3, ip
 80003d0:	45a4      	cmp	ip, r4
 80003d2:	d908      	bls.n	80003e6 <__udivmoddi4+0x1ce>
 80003d4:	193c      	adds	r4, r7, r4
 80003d6:	f103 3eff 	add.w	lr, r3, #4294967295
 80003da:	f080 8082 	bcs.w	80004e2 <__udivmoddi4+0x2ca>
 80003de:	45a4      	cmp	ip, r4
 80003e0:	d97f      	bls.n	80004e2 <__udivmoddi4+0x2ca>
 80003e2:	3b02      	subs	r3, #2
 80003e4:	443c      	add	r4, r7
 80003e6:	ea43 4000 	orr.w	r0, r3, r0, lsl #16
 80003ea:	eba4 040c 	sub.w	r4, r4, ip
 80003ee:	fba0 ec02 	umull	lr, ip, r0, r2
 80003f2:	4564      	cmp	r4, ip
 80003f4:	4673      	mov	r3, lr
 80003f6:	46e1      	mov	r9, ip
 80003f8:	d362      	bcc.n	80004c0 <__udivmoddi4+0x2a8>
 80003fa:	d05f      	beq.n	80004bc <__udivmoddi4+0x2a4>
 80003fc:	b15d      	cbz	r5, 8000416 <__udivmoddi4+0x1fe>
 80003fe:	ebb8 0203 	subs.w	r2, r8, r3
 8000402:	eb64 0409 	sbc.w	r4, r4, r9
 8000406:	fa04 f606 	lsl.w	r6, r4, r6
 800040a:	fa22 f301 	lsr.w	r3, r2, r1
 800040e:	431e      	orrs	r6, r3
 8000410:	40cc      	lsrs	r4, r1
 8000412:	e9c5 6400 	strd	r6, r4, [r5]
 8000416:	2100      	movs	r1, #0
 8000418:	e74f      	b.n	80002ba <__udivmoddi4+0xa2>
 800041a:	fbb1 fcf2 	udiv	ip, r1, r2
 800041e:	0c01      	lsrs	r1, r0, #16
 8000420:	ea41 410e 	orr.w	r1, r1, lr, lsl #16
 8000424:	b280      	uxth	r0, r0
 8000426:	ea40 4201 	orr.w	r2, r0, r1, lsl #16
 800042a:	463b      	mov	r3, r7
 800042c:	4638      	mov	r0, r7
 800042e:	463c      	mov	r4, r7
 8000430:	46b8      	mov	r8, r7
 8000432:	46be      	mov	lr, r7
 8000434:	2620      	movs	r6, #32
 8000436:	fbb1 f1f7 	udiv	r1, r1, r7
 800043a:	eba2 0208 	sub.w	r2, r2, r8
 800043e:	ea41 410c 	orr.w	r1, r1, ip, lsl #16
 8000442:	e766      	b.n	8000312 <__udivmoddi4+0xfa>
 8000444:	4601      	mov	r1, r0
 8000446:	e718      	b.n	800027a <__udivmoddi4+0x62>
 8000448:	4610      	mov	r0, r2
 800044a:	e72c      	b.n	80002a6 <__udivmoddi4+0x8e>
 800044c:	f1c6 0220 	rsb	r2, r6, #32
 8000450:	fa2e f302 	lsr.w	r3, lr, r2
 8000454:	40b7      	lsls	r7, r6
 8000456:	40b1      	lsls	r1, r6
 8000458:	fa20 f202 	lsr.w	r2, r0, r2
 800045c:	ea4f 4e17 	mov.w	lr, r7, lsr #16
 8000460:	430a      	orrs	r2, r1
 8000462:	fbb3 f8fe 	udiv	r8, r3, lr
 8000466:	b2bc      	uxth	r4, r7
 8000468:	fb0e 3318 	mls	r3, lr, r8, r3
 800046c:	0c11      	lsrs	r1, r2, #16
 800046e:	ea41 4103 	orr.w	r1, r1, r3, lsl #16
 8000472:	fb08 f904 	mul.w	r9, r8, r4
 8000476:	40b0      	lsls	r0, r6
 8000478:	4589      	cmp	r9, r1
 800047a:	ea4f 4310 	mov.w	r3, r0, lsr #16
 800047e:	b280      	uxth	r0, r0
 8000480:	d93e      	bls.n	8000500 <__udivmoddi4+0x2e8>
 8000482:	1879      	adds	r1, r7, r1
 8000484:	f108 3cff 	add.w	ip, r8, #4294967295
 8000488:	d201      	bcs.n	800048e <__udivmoddi4+0x276>
 800048a:	4589      	cmp	r9, r1
 800048c:	d81f      	bhi.n	80004ce <__udivmoddi4+0x2b6>
 800048e:	eba1 0109 	sub.w	r1, r1, r9
 8000492:	fbb1 f9fe 	udiv	r9, r1, lr
 8000496:	fb09 f804 	mul.w	r8, r9, r4
 800049a:	fb0e 1119 	mls	r1, lr, r9, r1
 800049e:	b292      	uxth	r2, r2
 80004a0:	ea42 4201 	orr.w	r2, r2, r1, lsl #16
 80004a4:	4542      	cmp	r2, r8
 80004a6:	d229      	bcs.n	80004fc <__udivmoddi4+0x2e4>
 80004a8:	18ba      	adds	r2, r7, r2
 80004aa:	f109 31ff 	add.w	r1, r9, #4294967295
 80004ae:	d2c4      	bcs.n	800043a <__udivmoddi4+0x222>
 80004b0:	4542      	cmp	r2, r8
 80004b2:	d2c2      	bcs.n	800043a <__udivmoddi4+0x222>
 80004b4:	f1a9 0102 	sub.w	r1, r9, #2
 80004b8:	443a      	add	r2, r7
 80004ba:	e7be      	b.n	800043a <__udivmoddi4+0x222>
 80004bc:	45f0      	cmp	r8, lr
 80004be:	d29d      	bcs.n	80003fc <__udivmoddi4+0x1e4>
 80004c0:	ebbe 0302 	subs.w	r3, lr, r2
 80004c4:	eb6c 0c07 	sbc.w	ip, ip, r7
 80004c8:	3801      	subs	r0, #1
 80004ca:	46e1      	mov	r9, ip
 80004cc:	e796      	b.n	80003fc <__udivmoddi4+0x1e4>
 80004ce:	eba7 0909 	sub.w	r9, r7, r9
 80004d2:	4449      	add	r1, r9
 80004d4:	f1a8 0c02 	sub.w	ip, r8, #2
 80004d8:	fbb1 f9fe 	udiv	r9, r1, lr
 80004dc:	fb09 f804 	mul.w	r8, r9, r4
 80004e0:	e7db      	b.n	800049a <__udivmoddi4+0x282>
 80004e2:	4673      	mov	r3, lr
 80004e4:	e77f      	b.n	80003e6 <__udivmoddi4+0x1ce>
 80004e6:	4650      	mov	r0, sl
 80004e8:	e766      	b.n	80003b8 <__udivmoddi4+0x1a0>
 80004ea:	4608      	mov	r0, r1
 80004ec:	e6fd      	b.n	80002ea <__udivmoddi4+0xd2>
 80004ee:	443b      	add	r3, r7
 80004f0:	3a02      	subs	r2, #2
 80004f2:	e733      	b.n	800035c <__udivmoddi4+0x144>
 80004f4:	f1ac 0c02 	sub.w	ip, ip, #2
 80004f8:	443b      	add	r3, r7
 80004fa:	e71c      	b.n	8000336 <__udivmoddi4+0x11e>
 80004fc:	4649      	mov	r1, r9
 80004fe:	e79c      	b.n	800043a <__udivmoddi4+0x222>
 8000500:	eba1 0109 	sub.w	r1, r1, r9
 8000504:	46c4      	mov	ip, r8
 8000506:	fbb1 f9fe 	udiv	r9, r1, lr
 800050a:	fb09 f804 	mul.w	r8, r9, r4
 800050e:	e7c4      	b.n	800049a <__udivmoddi4+0x282>

08000510 <__aeabi_idiv0>:
 8000510:	4770      	bx	lr
 8000512:	bf00      	nop

08000514 <writeReg>:
 8000514:	b57f      	push	{r0, r1, r2, r3, r4, r5, r6, lr}
 8000516:	2301      	movs	r3, #1
 8000518:	f88d 2017 	strb.w	r2, [sp, #23]
 800051c:	f04f 32ff 	mov.w	r2, #4294967295
 8000520:	e9cd 3201 	strd	r3, r2, [sp, #4]
 8000524:	f10d 0217 	add.w	r2, sp, #23
 8000528:	9200      	str	r2, [sp, #0]
 800052a:	460a      	mov	r2, r1
 800052c:	21d0      	movs	r1, #208	@ 0xd0
 800052e:	f002 fb9f 	bl	8002c70 <HAL_I2C_Mem_Write>
 8000532:	b007      	add	sp, #28
 8000534:	f85d fb04 	ldr.w	pc, [sp], #4

08000538 <MPU6050_Init>:
 8000538:	b510      	push	{r4, lr}
 800053a:	4604      	mov	r4, r0
 800053c:	2064      	movs	r0, #100	@ 0x64
 800053e:	f001 ff57 	bl	80023f0 <HAL_Delay>
 8000542:	2201      	movs	r2, #1
 8000544:	216b      	movs	r1, #107	@ 0x6b
 8000546:	4620      	mov	r0, r4
 8000548:	f7ff ffe4 	bl	8000514 <writeReg>
 800054c:	b108      	cbz	r0, 8000552 <MPU6050_Init+0x1a>
 800054e:	2001      	movs	r0, #1
 8000550:	bd10      	pop	{r4, pc}
 8000552:	200a      	movs	r0, #10
 8000554:	f001 ff4c 	bl	80023f0 <HAL_Delay>
 8000558:	2203      	movs	r2, #3
 800055a:	211a      	movs	r1, #26
 800055c:	4620      	mov	r0, r4
 800055e:	f7ff ffd9 	bl	8000514 <writeReg>
 8000562:	2800      	cmp	r0, #0
 8000564:	d1f3      	bne.n	800054e <MPU6050_Init+0x16>
 8000566:	2204      	movs	r2, #4
 8000568:	2119      	movs	r1, #25
 800056a:	4620      	mov	r0, r4
 800056c:	f7ff ffd2 	bl	8000514 <writeReg>
 8000570:	4602      	mov	r2, r0
 8000572:	2800      	cmp	r0, #0
 8000574:	d1eb      	bne.n	800054e <MPU6050_Init+0x16>
 8000576:	211b      	movs	r1, #27
 8000578:	4620      	mov	r0, r4
 800057a:	f7ff ffcb 	bl	8000514 <writeReg>
 800057e:	4602      	mov	r2, r0
 8000580:	2800      	cmp	r0, #0
 8000582:	d1e4      	bne.n	800054e <MPU6050_Init+0x16>
 8000584:	211c      	movs	r1, #28
 8000586:	4620      	mov	r0, r4
 8000588:	f7ff ffc4 	bl	8000514 <writeReg>
 800058c:	3800      	subs	r0, #0
 800058e:	bf18      	it	ne
 8000590:	2001      	movne	r0, #1
 8000592:	e7dd      	b.n	8000550 <MPU6050_Init+0x18>

08000594 <MPU6050_ReadRaw>:
 8000594:	b510      	push	{r4, lr}
 8000596:	230e      	movs	r3, #14
 8000598:	b088      	sub	sp, #32
 800059a:	f04f 32ff 	mov.w	r2, #4294967295
 800059e:	e9cd 3201 	strd	r3, r2, [sp, #4]
 80005a2:	ab04      	add	r3, sp, #16
 80005a4:	460c      	mov	r4, r1
 80005a6:	9300      	str	r3, [sp, #0]
 80005a8:	223b      	movs	r2, #59	@ 0x3b
 80005aa:	2301      	movs	r3, #1
 80005ac:	21d0      	movs	r1, #208	@ 0xd0
 80005ae:	f002 fbef 	bl	8002d90 <HAL_I2C_Mem_Read>
 80005b2:	b9c8      	cbnz	r0, 80005e8 <MPU6050_ReadRaw+0x54>
 80005b4:	f8bd 3010 	ldrh.w	r3, [sp, #16]
 80005b8:	ba5b      	rev16	r3, r3
 80005ba:	8023      	strh	r3, [r4, #0]
 80005bc:	f8bd 3012 	ldrh.w	r3, [sp, #18]
 80005c0:	ba5b      	rev16	r3, r3
 80005c2:	8063      	strh	r3, [r4, #2]
 80005c4:	f8bd 3014 	ldrh.w	r3, [sp, #20]
 80005c8:	ba5b      	rev16	r3, r3
 80005ca:	80a3      	strh	r3, [r4, #4]
 80005cc:	f8bd 3018 	ldrh.w	r3, [sp, #24]
 80005d0:	ba5b      	rev16	r3, r3
 80005d2:	80e3      	strh	r3, [r4, #6]
 80005d4:	f8bd 301a 	ldrh.w	r3, [sp, #26]
 80005d8:	ba5b      	rev16	r3, r3
 80005da:	8123      	strh	r3, [r4, #8]
 80005dc:	f8bd 301c 	ldrh.w	r3, [sp, #28]
 80005e0:	ba5b      	rev16	r3, r3
 80005e2:	8163      	strh	r3, [r4, #10]
 80005e4:	b008      	add	sp, #32
 80005e6:	bd10      	pop	{r4, pc}
 80005e8:	2001      	movs	r0, #1
 80005ea:	e7fb      	b.n	80005e4 <MPU6050_ReadRaw+0x50>

080005ec <MPU6050_ComputeScaled>:
 80005ec:	f9b0 3000 	ldrsh.w	r3, [r0]
 80005f0:	ed9f 7a25 	vldr	s14, [pc, #148]	@ 8000688 <MPU6050_ComputeScaled+0x9c>
 80005f4:	ee07 3a90 	vmov	s15, r3
 80005f8:	eef8 7ae7 	vcvt.f32.s32	s15, s15
 80005fc:	f9b0 3002 	ldrsh.w	r3, [r0, #2]
 8000600:	ee67 7a87 	vmul.f32	s15, s15, s14
 8000604:	edc0 7a03 	vstr	s15, [r0, #12]
 8000608:	ee07 3a90 	vmov	s15, r3
 800060c:	eef8 7ae7 	vcvt.f32.s32	s15, s15
 8000610:	f9b0 3004 	ldrsh.w	r3, [r0, #4]
 8000614:	ee67 7a87 	vmul.f32	s15, s15, s14
 8000618:	edc0 7a04 	vstr	s15, [r0, #16]
 800061c:	ee07 3a90 	vmov	s15, r3
 8000620:	eef8 7ae7 	vcvt.f32.s32	s15, s15
 8000624:	f9b0 3006 	ldrsh.w	r3, [r0, #6]
 8000628:	ee67 7a87 	vmul.f32	s15, s15, s14
 800062c:	ed90 7a09 	vldr	s14, [r0, #36]	@ 0x24
 8000630:	edc0 7a05 	vstr	s15, [r0, #20]
 8000634:	ee07 3a90 	vmov	s15, r3
 8000638:	eef8 7ae7 	vcvt.f32.s32	s15, s15
 800063c:	f9b0 3008 	ldrsh.w	r3, [r0, #8]
 8000640:	ee77 7ac7 	vsub.f32	s15, s15, s14
 8000644:	ed9f 7a11 	vldr	s14, [pc, #68]	@ 800068c <MPU6050_ComputeScaled+0xa0>
 8000648:	eec7 6a87 	vdiv.f32	s13, s15, s14
 800064c:	ee07 3a90 	vmov	s15, r3
 8000650:	edc0 6a06 	vstr	s13, [r0, #24]
 8000654:	eef8 7ae7 	vcvt.f32.s32	s15, s15
 8000658:	edd0 6a0a 	vldr	s13, [r0, #40]	@ 0x28
 800065c:	f9b0 300a 	ldrsh.w	r3, [r0, #10]
 8000660:	ee77 7ae6 	vsub.f32	s15, s15, s13
 8000664:	eec7 6a87 	vdiv.f32	s13, s15, s14
 8000668:	ee07 3a90 	vmov	s15, r3
 800066c:	edc0 6a07 	vstr	s13, [r0, #28]
 8000670:	eef8 7ae7 	vcvt.f32.s32	s15, s15
 8000674:	edd0 6a0b 	vldr	s13, [r0, #44]	@ 0x2c
 8000678:	ee77 7ae6 	vsub.f32	s15, s15, s13
 800067c:	eec7 6a87 	vdiv.f32	s13, s15, s14
 8000680:	edc0 6a08 	vstr	s13, [r0, #32]
 8000684:	4770      	bx	lr
 8000686:	bf00      	nop
 8000688:	38800000 	.word	0x38800000
 800068c:	43030000 	.word	0x43030000

08000690 <MPU6050_CalibrateGyro>:
 8000690:	b5f8      	push	{r3, r4, r5, r6, r7, lr}
 8000692:	ed2d 8b04 	vpush	{d8-d9}
 8000696:	ed9f 8a25 	vldr	s16, [pc, #148]	@ 800072c <MPU6050_CalibrateGyro+0x9c>
 800069a:	4607      	mov	r7, r0
 800069c:	460c      	mov	r4, r1
 800069e:	4616      	mov	r6, r2
 80006a0:	ed81 8a09 	vstr	s16, [r1, #36]	@ 0x24
 80006a4:	ed81 8a0a 	vstr	s16, [r1, #40]	@ 0x28
 80006a8:	ed81 8a0b 	vstr	s16, [r1, #44]	@ 0x2c
 80006ac:	2500      	movs	r5, #0
 80006ae:	eef0 8a48 	vmov.f32	s17, s16
 80006b2:	eeb0 9a48 	vmov.f32	s18, s16
 80006b6:	42b5      	cmp	r5, r6
 80006b8:	d113      	bne.n	80006e2 <MPU6050_CalibrateGyro+0x52>
 80006ba:	ee07 5a90 	vmov	s15, r5
 80006be:	eef8 7a67 	vcvt.f32.u32	s15, s15
 80006c2:	2000      	movs	r0, #0
 80006c4:	ee89 7a27 	vdiv.f32	s14, s18, s15
 80006c8:	ed84 7a09 	vstr	s14, [r4, #36]	@ 0x24
 80006cc:	ee88 7aa7 	vdiv.f32	s14, s17, s15
 80006d0:	ed84 7a0a 	vstr	s14, [r4, #40]	@ 0x28
 80006d4:	ee88 7a27 	vdiv.f32	s14, s16, s15
 80006d8:	ed84 7a0b 	vstr	s14, [r4, #44]	@ 0x2c
 80006dc:	ecbd 8b04 	vpop	{d8-d9}
 80006e0:	bdf8      	pop	{r3, r4, r5, r6, r7, pc}
 80006e2:	4621      	mov	r1, r4
 80006e4:	4638      	mov	r0, r7
 80006e6:	f7ff ff55 	bl	8000594 <MPU6050_ReadRaw>
 80006ea:	3501      	adds	r5, #1
 80006ec:	b9d8      	cbnz	r0, 8000726 <MPU6050_CalibrateGyro+0x96>
 80006ee:	f9b4 3006 	ldrsh.w	r3, [r4, #6]
 80006f2:	ee07 3a90 	vmov	s15, r3
 80006f6:	f9b4 3008 	ldrsh.w	r3, [r4, #8]
 80006fa:	eef8 7ae7 	vcvt.f32.s32	s15, s15
 80006fe:	2002      	movs	r0, #2
 8000700:	ee39 9a27 	vadd.f32	s18, s18, s15
 8000704:	ee07 3a90 	vmov	s15, r3
 8000708:	f9b4 300a 	ldrsh.w	r3, [r4, #10]
 800070c:	eef8 7ae7 	vcvt.f32.s32	s15, s15
 8000710:	ee78 8aa7 	vadd.f32	s17, s17, s15
 8000714:	ee07 3a90 	vmov	s15, r3
 8000718:	eef8 7ae7 	vcvt.f32.s32	s15, s15
 800071c:	ee38 8a27 	vadd.f32	s16, s16, s15
 8000720:	f001 fe66 	bl	80023f0 <HAL_Delay>
 8000724:	e7c7      	b.n	80006b6 <MPU6050_CalibrateGyro+0x26>
 8000726:	2001      	movs	r0, #1
 8000728:	e7d8      	b.n	80006dc <MPU6050_CalibrateGyro+0x4c>
 800072a:	bf00      	nop
 800072c:	00000000 	.word	0x00000000

08000730 <Madgwick_Init>:
 8000730:	f04f 537e 	mov.w	r3, #1065353216	@ 0x3f800000
 8000734:	6003      	str	r3, [r0, #0]
 8000736:	2300      	movs	r3, #0
 8000738:	6043      	str	r3, [r0, #4]
 800073a:	6083      	str	r3, [r0, #8]
 800073c:	60c3      	str	r3, [r0, #12]
 800073e:	ed80 0a04 	vstr	s0, [r0, #16]
 8000742:	4770      	bx	lr

08000744 <Madgwick_UpdateIMU>:
 8000744:	b510      	push	{r4, lr}
 8000746:	eef5 1a40 	vcmp.f32	s3, #0.0
 800074a:	eef1 fa10 	vmrs	APSR_nzcv, fpscr
 800074e:	ed2d 8b0e 	vpush	{d8-d14}
 8000752:	4604      	mov	r4, r0
 8000754:	edd0 9a00 	vldr	s19, [r0]
 8000758:	ed90 9a01 	vldr	s18, [r0, #4]
 800075c:	edd0 8a02 	vldr	s17, [r0, #8]
 8000760:	ed90 ba03 	vldr	s22, [r0, #12]
 8000764:	eeb0 ca40 	vmov.f32	s24, s0
 8000768:	eef0 ca60 	vmov.f32	s25, s1
 800076c:	eeb0 da41 	vmov.f32	s26, s2
 8000770:	eeb0 aa61 	vmov.f32	s20, s3
 8000774:	eeb0 8a42 	vmov.f32	s16, s4
 8000778:	eef0 ba43 	vmov.f32	s23, s6
 800077c:	eef7 aa00 	vmov.f32	s21, #112	@ 0x3f800000  1.0
 8000780:	d10a      	bne.n	8000798 <Madgwick_UpdateIMU+0x54>
 8000782:	eeb5 2a40 	vcmp.f32	s4, #0.0
 8000786:	eef1 fa10 	vmrs	APSR_nzcv, fpscr
 800078a:	d105      	bne.n	8000798 <Madgwick_UpdateIMU+0x54>
 800078c:	eef5 2a40 	vcmp.f32	s5, #0.0
 8000790:	eef1 fa10 	vmrs	APSR_nzcv, fpscr
 8000794:	f000 80b9 	beq.w	800090a <Madgwick_UpdateIMU+0x1c6>
 8000798:	ee28 0a08 	vmul.f32	s0, s16, s16
 800079c:	eeaa 0a0a 	vfma.f32	s0, s20, s20
 80007a0:	eea2 0aa2 	vfma.f32	s0, s5, s5
 80007a4:	f003 fd04 	bl	80041b0 <sqrtf>
 80007a8:	ee8a 7a80 	vdiv.f32	s14, s21, s0
 80007ac:	ee38 5aa8 	vadd.f32	s10, s17, s17
 80007b0:	ee28 2a07 	vmul.f32	s4, s16, s14
 80007b4:	ee6a 7a07 	vmul.f32	s15, s20, s14
 80007b8:	eeb1 7a00 	vmov.f32	s14, #16	@ 0x40800000  4.0
 80007bc:	ee69 5a87 	vmul.f32	s11, s19, s14
 80007c0:	ee25 6a27 	vmul.f32	s12, s10, s15
 80007c4:	ee65 6aa8 	vmul.f32	s13, s11, s17
 80007c8:	ee39 4a09 	vadd.f32	s8, s18, s18
 80007cc:	eea6 6aa8 	vfma.f32	s12, s13, s17
 80007d0:	ee65 6a89 	vmul.f32	s13, s11, s18
 80007d4:	ee7b 4a0b 	vadd.f32	s9, s22, s22
 80007d8:	eea6 6a89 	vfma.f32	s12, s13, s18
 80007dc:	ee67 6ae4 	vnmul.f32	s13, s15, s9
 80007e0:	eea4 6a42 	vfms.f32	s12, s8, s4
 80007e4:	ee65 5aa9 	vmul.f32	s11, s11, s19
 80007e8:	eeb0 ea46 	vmov.f32	s28, s12
 80007ec:	ee29 6a07 	vmul.f32	s12, s18, s14
 80007f0:	ee39 8aa9 	vadd.f32	s16, s19, s19
 80007f4:	ee66 3a0b 	vmul.f32	s7, s12, s22
 80007f8:	ee28 7a87 	vmul.f32	s14, s17, s14
 80007fc:	eee3 6a8b 	vfma.f32	s13, s7, s22
 8000800:	ee26 6a09 	vmul.f32	s12, s12, s18
 8000804:	eee5 6a89 	vfma.f32	s13, s11, s18
 8000808:	eee8 6a42 	vfms.f32	s13, s16, s4
 800080c:	ee28 8a27 	vmul.f32	s16, s16, s15
 8000810:	eef0 da66 	vmov.f32	s27, s13
 8000814:	eea5 8aa8 	vfma.f32	s16, s11, s17
 8000818:	ee67 6a0b 	vmul.f32	s13, s14, s22
 800081c:	ee67 7ac4 	vnmul.f32	s15, s15, s8
 8000820:	eea6 8a8b 	vfma.f32	s16, s13, s22
 8000824:	eee6 7a0b 	vfma.f32	s15, s12, s22
 8000828:	ee27 7a28 	vmul.f32	s14, s14, s17
 800082c:	ee2d 0aad 	vmul.f32	s0, s27, s27
 8000830:	eea4 8ac2 	vfms.f32	s16, s9, s4
 8000834:	eee7 7a0b 	vfma.f32	s15, s14, s22
 8000838:	eeae 0a0e 	vfma.f32	s0, s28, s28
 800083c:	eee5 7a42 	vfms.f32	s15, s10, s4
 8000840:	eea8 0a08 	vfma.f32	s0, s16, s16
 8000844:	eeb0 aa67 	vmov.f32	s20, s15
 8000848:	eea7 0aa7 	vfma.f32	s0, s15, s15
 800084c:	f003 fcb0 	bl	80041b0 <sqrtf>
 8000850:	eeca 7a80 	vdiv.f32	s15, s21, s0
 8000854:	ee2e 6a27 	vmul.f32	s12, s28, s15
 8000858:	ee6d 6aa7 	vmul.f32	s13, s27, s15
 800085c:	ee28 7a27 	vmul.f32	s14, s16, s15
 8000860:	ee6a 7a27 	vmul.f32	s15, s20, s15
 8000864:	ee6c 5ae8 	vnmul.f32	s11, s25, s17
 8000868:	edd4 4a04 	vldr	s9, [r4, #16]
 800086c:	eee9 5a4c 	vfms.f32	s11, s18, s24
 8000870:	ee26 6a64 	vnmul.f32	s12, s12, s9
 8000874:	eeeb 5a4d 	vfms.f32	s11, s22, s26
 8000878:	eeb6 5a00 	vmov.f32	s10, #96	@ 0x3f000000  0.5
 800087c:	eea5 6a85 	vfma.f32	s12, s11, s10
 8000880:	ee68 5a8d 	vmul.f32	s11, s17, s26
 8000884:	ee66 6ae4 	vnmul.f32	s13, s13, s9
 8000888:	eee9 5a8c 	vfma.f32	s11, s19, s24
 800088c:	ee69 0a2c 	vmul.f32	s1, s18, s25
 8000890:	eeeb 5a6c 	vfms.f32	s11, s22, s25
 8000894:	eee9 0a8d 	vfma.f32	s1, s19, s26
 8000898:	eee5 6a85 	vfma.f32	s13, s11, s10
 800089c:	ee6d 5a49 	vnmul.f32	s11, s26, s18
 80008a0:	ee27 7a64 	vnmul.f32	s14, s14, s9
 80008a4:	eee9 5aac 	vfma.f32	s11, s19, s25
 80008a8:	eea6 9aab 	vfma.f32	s18, s13, s23
 80008ac:	eeeb 5a0c 	vfma.f32	s11, s22, s24
 80008b0:	eee8 0acc 	vfms.f32	s1, s17, s24
 80008b4:	eee6 9a2b 	vfma.f32	s19, s12, s23
 80008b8:	eea5 7a85 	vfma.f32	s14, s11, s10
 80008bc:	ee67 7ae4 	vnmul.f32	s15, s15, s9
 80008c0:	ee29 0a09 	vmul.f32	s0, s18, s18
 80008c4:	eee7 8a2b 	vfma.f32	s17, s14, s23
 80008c8:	eee0 7a85 	vfma.f32	s15, s1, s10
 80008cc:	eea9 0aa9 	vfma.f32	s0, s19, s19
 80008d0:	eea7 baab 	vfma.f32	s22, s15, s23
 80008d4:	eea8 0aa8 	vfma.f32	s0, s17, s17
 80008d8:	eeab 0a0b 	vfma.f32	s0, s22, s22
 80008dc:	f003 fc68 	bl	80041b0 <sqrtf>
 80008e0:	eeca 7a80 	vdiv.f32	s15, s21, s0
 80008e4:	ee69 9aa7 	vmul.f32	s19, s19, s15
 80008e8:	ee29 9a27 	vmul.f32	s18, s18, s15
 80008ec:	ee68 8aa7 	vmul.f32	s17, s17, s15
 80008f0:	ee2b 8a27 	vmul.f32	s16, s22, s15
 80008f4:	edc4 9a00 	vstr	s19, [r4]
 80008f8:	ed84 9a01 	vstr	s18, [r4, #4]
 80008fc:	edc4 8a02 	vstr	s17, [r4, #8]
 8000900:	ed84 8a03 	vstr	s16, [r4, #12]
 8000904:	ecbd 8b0e 	vpop	{d8-d14}
 8000908:	bd10      	pop	{r4, pc}
 800090a:	eddf 7a04 	vldr	s15, [pc, #16]	@ 800091c <Madgwick_UpdateIMU+0x1d8>
 800090e:	eeb0 7a67 	vmov.f32	s14, s15
 8000912:	eef0 6a67 	vmov.f32	s13, s15
 8000916:	eeb0 6a67 	vmov.f32	s12, s15
 800091a:	e7a3      	b.n	8000864 <Madgwick_UpdateIMU+0x120>
 800091c:	00000000 	.word	0x00000000

08000920 <MX_GPIO_Init>:
 8000920:	b570      	push	{r4, r5, r6, lr}
 8000922:	2214      	movs	r2, #20
 8000924:	b08a      	sub	sp, #40	@ 0x28
 8000926:	eb0d 0002 	add.w	r0, sp, r2
 800092a:	2100      	movs	r1, #0
 800092c:	f003 fbbc 	bl	80040a8 <memset>
 8000930:	2400      	movs	r4, #0
 8000932:	4b35      	ldr	r3, [pc, #212]	@ (8000a08 <MX_GPIO_Init+0xe8>)
 8000934:	9400      	str	r4, [sp, #0]
 8000936:	6b1a      	ldr	r2, [r3, #48]	@ 0x30
 8000938:	4e34      	ldr	r6, [pc, #208]	@ (8000a0c <MX_GPIO_Init+0xec>)
 800093a:	f042 0204 	orr.w	r2, r2, #4
 800093e:	631a      	str	r2, [r3, #48]	@ 0x30
 8000940:	6b1a      	ldr	r2, [r3, #48]	@ 0x30
 8000942:	f002 0204 	and.w	r2, r2, #4
 8000946:	9200      	str	r2, [sp, #0]
 8000948:	9a00      	ldr	r2, [sp, #0]
 800094a:	9401      	str	r4, [sp, #4]
 800094c:	6b1a      	ldr	r2, [r3, #48]	@ 0x30
 800094e:	f042 0280 	orr.w	r2, r2, #128	@ 0x80
 8000952:	631a      	str	r2, [r3, #48]	@ 0x30
 8000954:	6b1a      	ldr	r2, [r3, #48]	@ 0x30
 8000956:	f002 0280 	and.w	r2, r2, #128	@ 0x80
 800095a:	9201      	str	r2, [sp, #4]
 800095c:	9a01      	ldr	r2, [sp, #4]
 800095e:	9402      	str	r4, [sp, #8]
 8000960:	6b1a      	ldr	r2, [r3, #48]	@ 0x30
 8000962:	f042 0201 	orr.w	r2, r2, #1
 8000966:	631a      	str	r2, [r3, #48]	@ 0x30
 8000968:	6b1a      	ldr	r2, [r3, #48]	@ 0x30
 800096a:	f002 0201 	and.w	r2, r2, #1
 800096e:	9202      	str	r2, [sp, #8]
 8000970:	9a02      	ldr	r2, [sp, #8]
 8000972:	9403      	str	r4, [sp, #12]
 8000974:	6b1a      	ldr	r2, [r3, #48]	@ 0x30
 8000976:	f042 0202 	orr.w	r2, r2, #2
 800097a:	631a      	str	r2, [r3, #48]	@ 0x30
 800097c:	6b1a      	ldr	r2, [r3, #48]	@ 0x30
 800097e:	f002 0202 	and.w	r2, r2, #2
 8000982:	9203      	str	r2, [sp, #12]
 8000984:	9a03      	ldr	r2, [sp, #12]
 8000986:	9404      	str	r4, [sp, #16]
 8000988:	6b1a      	ldr	r2, [r3, #48]	@ 0x30
 800098a:	f042 0208 	orr.w	r2, r2, #8
 800098e:	631a      	str	r2, [r3, #48]	@ 0x30
 8000990:	6b1b      	ldr	r3, [r3, #48]	@ 0x30
 8000992:	f003 0308 	and.w	r3, r3, #8
 8000996:	4622      	mov	r2, r4
 8000998:	9304      	str	r3, [sp, #16]
 800099a:	4630      	mov	r0, r6
 800099c:	f44f 7100 	mov.w	r1, #512	@ 0x200
 80009a0:	2503      	movs	r5, #3
 80009a2:	9b04      	ldr	r3, [sp, #16]
 80009a4:	f001 feb6 	bl	8002714 <HAL_GPIO_WritePin>
 80009a8:	f643 533f 	movw	r3, #15679	@ 0x3d3f
 80009ac:	a905      	add	r1, sp, #20
 80009ae:	4630      	mov	r0, r6
 80009b0:	e9cd 3505 	strd	r3, r5, [sp, #20]
 80009b4:	9407      	str	r4, [sp, #28]
 80009b6:	f001 fde7 	bl	8002588 <HAL_GPIO_Init>
 80009ba:	f249 03ff 	movw	r3, #37119	@ 0x90ff
 80009be:	a905      	add	r1, sp, #20
 80009c0:	4813      	ldr	r0, [pc, #76]	@ (8000a10 <MX_GPIO_Init+0xf0>)
 80009c2:	9407      	str	r4, [sp, #28]
 80009c4:	e9cd 3505 	strd	r3, r5, [sp, #20]
 80009c8:	f001 fdde 	bl	8002588 <HAL_GPIO_Init>
 80009cc:	f24f 733f 	movw	r3, #63295	@ 0xf73f
 80009d0:	a905      	add	r1, sp, #20
 80009d2:	4810      	ldr	r0, [pc, #64]	@ (8000a14 <MX_GPIO_Init+0xf4>)
 80009d4:	9407      	str	r4, [sp, #28]
 80009d6:	e9cd 3505 	strd	r3, r5, [sp, #20]
 80009da:	f001 fdd5 	bl	8002588 <HAL_GPIO_Init>
 80009de:	f44f 7200 	mov.w	r2, #512	@ 0x200
 80009e2:	2301      	movs	r3, #1
 80009e4:	a905      	add	r1, sp, #20
 80009e6:	4630      	mov	r0, r6
 80009e8:	e9cd 2305 	strd	r2, r3, [sp, #20]
 80009ec:	e9cd 4407 	strd	r4, r4, [sp, #28]
 80009f0:	f001 fdca 	bl	8002588 <HAL_GPIO_Init>
 80009f4:	2304      	movs	r3, #4
 80009f6:	4808      	ldr	r0, [pc, #32]	@ (8000a18 <MX_GPIO_Init+0xf8>)
 80009f8:	9407      	str	r4, [sp, #28]
 80009fa:	a905      	add	r1, sp, #20
 80009fc:	e9cd 3505 	strd	r3, r5, [sp, #20]
 8000a00:	f001 fdc2 	bl	8002588 <HAL_GPIO_Init>
 8000a04:	b00a      	add	sp, #40	@ 0x28
 8000a06:	bd70      	pop	{r4, r5, r6, pc}
 8000a08:	40023800 	.word	0x40023800
 8000a0c:	40020800 	.word	0x40020800
 8000a10:	40020000 	.word	0x40020000
 8000a14:	40020400 	.word	0x40020400
 8000a18:	40020c00 	.word	0x40020c00

08000a1c <MX_I2C1_Init>:
 8000a1c:	b508      	push	{r3, lr}
 8000a1e:	480b      	ldr	r0, [pc, #44]	@ (8000a4c <MX_I2C1_Init+0x30>)
 8000a20:	4a0b      	ldr	r2, [pc, #44]	@ (8000a50 <MX_I2C1_Init+0x34>)
 8000a22:	4b0c      	ldr	r3, [pc, #48]	@ (8000a54 <MX_I2C1_Init+0x38>)
 8000a24:	e9c0 2300 	strd	r2, r3, [r0]
 8000a28:	2300      	movs	r3, #0
 8000a2a:	f44f 4280 	mov.w	r2, #16384	@ 0x4000
 8000a2e:	e9c0 3302 	strd	r3, r3, [r0, #8]
 8000a32:	e9c0 2304 	strd	r2, r3, [r0, #16]
 8000a36:	e9c0 3306 	strd	r3, r3, [r0, #24]
 8000a3a:	6203      	str	r3, [r0, #32]
 8000a3c:	f002 f870 	bl	8002b20 <HAL_I2C_Init>
 8000a40:	b118      	cbz	r0, 8000a4a <MX_I2C1_Init+0x2e>
 8000a42:	e8bd 4008 	ldmia.w	sp!, {r3, lr}
 8000a46:	f001 ba23 	b.w	8001e90 <Error_Handler>
 8000a4a:	bd08      	pop	{r3, pc}
 8000a4c:	2000007c 	.word	0x2000007c
 8000a50:	40005400 	.word	0x40005400
 8000a54:	00061a80 	.word	0x00061a80

08000a58 <HAL_I2C_MspInit>:
 8000a58:	b530      	push	{r4, r5, lr}
 8000a5a:	4604      	mov	r4, r0
 8000a5c:	b089      	sub	sp, #36	@ 0x24
 8000a5e:	2214      	movs	r2, #20
 8000a60:	2100      	movs	r1, #0
 8000a62:	a803      	add	r0, sp, #12
 8000a64:	f003 fb20 	bl	80040a8 <memset>
 8000a68:	6822      	ldr	r2, [r4, #0]
 8000a6a:	4b13      	ldr	r3, [pc, #76]	@ (8000ab8 <HAL_I2C_MspInit+0x60>)
 8000a6c:	429a      	cmp	r2, r3
 8000a6e:	d121      	bne.n	8000ab4 <HAL_I2C_MspInit+0x5c>
 8000a70:	4c12      	ldr	r4, [pc, #72]	@ (8000abc <HAL_I2C_MspInit+0x64>)
 8000a72:	4813      	ldr	r0, [pc, #76]	@ (8000ac0 <HAL_I2C_MspInit+0x68>)
 8000a74:	2500      	movs	r5, #0
 8000a76:	9501      	str	r5, [sp, #4]
 8000a78:	6b23      	ldr	r3, [r4, #48]	@ 0x30
 8000a7a:	f043 0302 	orr.w	r3, r3, #2
 8000a7e:	6323      	str	r3, [r4, #48]	@ 0x30
 8000a80:	6b23      	ldr	r3, [r4, #48]	@ 0x30
 8000a82:	f003 0302 	and.w	r3, r3, #2
 8000a86:	9301      	str	r3, [sp, #4]
 8000a88:	9b01      	ldr	r3, [sp, #4]
 8000a8a:	22c0      	movs	r2, #192	@ 0xc0
 8000a8c:	2312      	movs	r3, #18
 8000a8e:	e9cd 2303 	strd	r2, r3, [sp, #12]
 8000a92:	2103      	movs	r1, #3
 8000a94:	2304      	movs	r3, #4
 8000a96:	e9cd 1306 	strd	r1, r3, [sp, #24]
 8000a9a:	a903      	add	r1, sp, #12
 8000a9c:	f001 fd74 	bl	8002588 <HAL_GPIO_Init>
 8000aa0:	9502      	str	r5, [sp, #8]
 8000aa2:	6c23      	ldr	r3, [r4, #64]	@ 0x40
 8000aa4:	f443 1300 	orr.w	r3, r3, #2097152	@ 0x200000
 8000aa8:	6423      	str	r3, [r4, #64]	@ 0x40
 8000aaa:	6c23      	ldr	r3, [r4, #64]	@ 0x40
 8000aac:	f403 1300 	and.w	r3, r3, #2097152	@ 0x200000
 8000ab0:	9302      	str	r3, [sp, #8]
 8000ab2:	9b02      	ldr	r3, [sp, #8]
 8000ab4:	b009      	add	sp, #36	@ 0x24
 8000ab6:	bd30      	pop	{r4, r5, pc}
 8000ab8:	40005400 	.word	0x40005400
 8000abc:	40023800 	.word	0x40023800
 8000ac0:	40020400 	.word	0x40020400

08000ac4 <PWM_SetSafe>:
 8000ac4:	4b03      	ldr	r3, [pc, #12]	@ (8000ad4 <PWM_SetSafe+0x10>)
 8000ac6:	681b      	ldr	r3, [r3, #0]
 8000ac8:	2200      	movs	r2, #0
 8000aca:	635a      	str	r2, [r3, #52]	@ 0x34
 8000acc:	639a      	str	r2, [r3, #56]	@ 0x38
 8000ace:	63da      	str	r2, [r3, #60]	@ 0x3c
 8000ad0:	641a      	str	r2, [r3, #64]	@ 0x40
 8000ad2:	4770      	bx	lr
 8000ad4:	200002f8 	.word	0x200002f8

08000ad8 <SetPwm>:
 8000ad8:	4b0a      	ldr	r3, [pc, #40]	@ (8000b04 <SetPwm+0x2c>)
 8000ada:	781a      	ldrb	r2, [r3, #0]
 8000adc:	b90a      	cbnz	r2, 8000ae2 <SetPwm+0xa>
 8000ade:	2201      	movs	r2, #1
 8000ae0:	701a      	strb	r2, [r3, #0]
 8000ae2:	4b09      	ldr	r3, [pc, #36]	@ (8000b08 <SetPwm+0x30>)
 8000ae4:	781b      	ldrb	r3, [r3, #0]
 8000ae6:	b10b      	cbz	r3, 8000aec <SetPwm+0x14>
 8000ae8:	f7ff bfec 	b.w	8000ac4 <PWM_SetSafe>
 8000aec:	4b07      	ldr	r3, [pc, #28]	@ (8000b0c <SetPwm+0x34>)
 8000aee:	8802      	ldrh	r2, [r0, #0]
 8000af0:	681b      	ldr	r3, [r3, #0]
 8000af2:	635a      	str	r2, [r3, #52]	@ 0x34
 8000af4:	8842      	ldrh	r2, [r0, #2]
 8000af6:	639a      	str	r2, [r3, #56]	@ 0x38
 8000af8:	8882      	ldrh	r2, [r0, #4]
 8000afa:	63da      	str	r2, [r3, #60]	@ 0x3c
 8000afc:	88c2      	ldrh	r2, [r0, #6]
 8000afe:	641a      	str	r2, [r3, #64]	@ 0x40
 8000b00:	4770      	bx	lr
 8000b02:	bf00      	nop
 8000b04:	2000023c 	.word	0x2000023c
 8000b08:	20000250 	.word	0x20000250
 8000b0c:	200002f8 	.word	0x200002f8

08000b10 <ESP_Send>:
 8000b10:	b570      	push	{r4, r5, r6, lr}
 8000b12:	460c      	mov	r4, r1
 8000b14:	4605      	mov	r5, r0
 8000b16:	f7ff fb5f 	bl	80001d8 <strlen>
 8000b1a:	4e0a      	ldr	r6, [pc, #40]	@ (8000b44 <ESP_Send+0x34>)
 8000b1c:	b282      	uxth	r2, r0
 8000b1e:	4629      	mov	r1, r5
 8000b20:	f04f 33ff 	mov.w	r3, #4294967295
 8000b24:	4630      	mov	r0, r6
 8000b26:	f002 ffec 	bl	8003b02 <HAL_UART_Transmit>
 8000b2a:	4630      	mov	r0, r6
 8000b2c:	4906      	ldr	r1, [pc, #24]	@ (8000b48 <ESP_Send+0x38>)
 8000b2e:	f04f 33ff 	mov.w	r3, #4294967295
 8000b32:	2202      	movs	r2, #2
 8000b34:	f002 ffe5 	bl	8003b02 <HAL_UART_Transmit>
 8000b38:	4620      	mov	r0, r4
 8000b3a:	e8bd 4070 	ldmia.w	sp!, {r4, r5, r6, lr}
 8000b3e:	f001 bc57 	b.w	80023f0 <HAL_Delay>
 8000b42:	bf00      	nop
 8000b44:	20000340 	.word	0x20000340
 8000b48:	08004730 	.word	0x08004730

08000b4c <ESP_WaitFor>:
 8000b4c:	e92d 41f0 	stmdb	sp!, {r4, r5, r6, r7, r8, lr}
 8000b50:	b092      	sub	sp, #72	@ 0x48
 8000b52:	460d      	mov	r5, r1
 8000b54:	4607      	mov	r7, r0
 8000b56:	f001 fc45 	bl	80023e4 <HAL_GetTick>
 8000b5a:	2240      	movs	r2, #64	@ 0x40
 8000b5c:	4606      	mov	r6, r0
 8000b5e:	2100      	movs	r1, #0
 8000b60:	a802      	add	r0, sp, #8
 8000b62:	f003 faa1 	bl	80040a8 <memset>
 8000b66:	f8df 805c 	ldr.w	r8, [pc, #92]	@ 8000bc4 <ESP_WaitFor+0x78>
 8000b6a:	2400      	movs	r4, #0
 8000b6c:	f001 fc3a 	bl	80023e4 <HAL_GetTick>
 8000b70:	1b83      	subs	r3, r0, r6
 8000b72:	42ab      	cmp	r3, r5
 8000b74:	d303      	bcc.n	8000b7e <ESP_WaitFor+0x32>
 8000b76:	2000      	movs	r0, #0
 8000b78:	b012      	add	sp, #72	@ 0x48
 8000b7a:	e8bd 81f0 	ldmia.w	sp!, {r4, r5, r6, r7, r8, pc}
 8000b7e:	230a      	movs	r3, #10
 8000b80:	2201      	movs	r2, #1
 8000b82:	f10d 0107 	add.w	r1, sp, #7
 8000b86:	4640      	mov	r0, r8
 8000b88:	f003 f809 	bl	8003b9e <HAL_UART_Receive>
 8000b8c:	2800      	cmp	r0, #0
 8000b8e:	d1ed      	bne.n	8000b6c <ESP_WaitFor+0x20>
 8000b90:	2c3e      	cmp	r4, #62	@ 0x3e
 8000b92:	d80e      	bhi.n	8000bb2 <ESP_WaitFor+0x66>
 8000b94:	f104 0248 	add.w	r2, r4, #72	@ 0x48
 8000b98:	1c63      	adds	r3, r4, #1
 8000b9a:	eb0d 0402 	add.w	r4, sp, r2
 8000b9e:	f89d 2007 	ldrb.w	r2, [sp, #7]
 8000ba2:	f804 2c40 	strb.w	r2, [r4, #-64]
 8000ba6:	aa12      	add	r2, sp, #72	@ 0x48
 8000ba8:	fa12 f283 	uxtah	r2, r2, r3
 8000bac:	b29c      	uxth	r4, r3
 8000bae:	f802 0c40 	strb.w	r0, [r2, #-64]
 8000bb2:	4639      	mov	r1, r7
 8000bb4:	a802      	add	r0, sp, #8
 8000bb6:	f003 fa7f 	bl	80040b8 <strstr>
 8000bba:	2800      	cmp	r0, #0
 8000bbc:	d0d6      	beq.n	8000b6c <ESP_WaitFor+0x20>
 8000bbe:	2001      	movs	r0, #1
 8000bc0:	e7da      	b.n	8000b78 <ESP_WaitFor+0x2c>
 8000bc2:	bf00      	nop
 8000bc4:	20000340 	.word	0x20000340

08000bc8 <ESP_Init>:
 8000bc8:	b573      	push	{r0, r1, r4, r5, r6, lr}
 8000bca:	f04f 33ff 	mov.w	r3, #4294967295
 8000bce:	4934      	ldr	r1, [pc, #208]	@ (8000ca0 <ESP_Init+0xd8>)
 8000bd0:	4834      	ldr	r0, [pc, #208]	@ (8000ca4 <ESP_Init+0xdc>)
 8000bd2:	4c35      	ldr	r4, [pc, #212]	@ (8000ca8 <ESP_Init+0xe0>)
 8000bd4:	4d35      	ldr	r5, [pc, #212]	@ (8000cac <ESP_Init+0xe4>)
 8000bd6:	4e36      	ldr	r6, [pc, #216]	@ (8000cb0 <ESP_Init+0xe8>)
 8000bd8:	2201      	movs	r2, #1
 8000bda:	f002 ff92 	bl	8003b02 <HAL_UART_Transmit>
 8000bde:	4930      	ldr	r1, [pc, #192]	@ (8000ca0 <ESP_Init+0xd8>)
 8000be0:	4830      	ldr	r0, [pc, #192]	@ (8000ca4 <ESP_Init+0xdc>)
 8000be2:	f04f 33ff 	mov.w	r3, #4294967295
 8000be6:	2201      	movs	r2, #1
 8000be8:	f002 ff8b 	bl	8003b02 <HAL_UART_Transmit>
 8000bec:	f04f 33ff 	mov.w	r3, #4294967295
 8000bf0:	2201      	movs	r2, #1
 8000bf2:	492b      	ldr	r1, [pc, #172]	@ (8000ca0 <ESP_Init+0xd8>)
 8000bf4:	482b      	ldr	r0, [pc, #172]	@ (8000ca4 <ESP_Init+0xdc>)
 8000bf6:	f002 ff84 	bl	8003b02 <HAL_UART_Transmit>
 8000bfa:	f44f 707a 	mov.w	r0, #1000	@ 0x3e8
 8000bfe:	f001 fbf7 	bl	80023f0 <HAL_Delay>
 8000c02:	482c      	ldr	r0, [pc, #176]	@ (8000cb4 <ESP_Init+0xec>)
 8000c04:	f44f 61fa 	mov.w	r1, #2000	@ 0x7d0
 8000c08:	f7ff ff82 	bl	8000b10 <ESP_Send>
 8000c0c:	482a      	ldr	r0, [pc, #168]	@ (8000cb8 <ESP_Init+0xf0>)
 8000c0e:	21c8      	movs	r1, #200	@ 0xc8
 8000c10:	f7ff ff7e 	bl	8000b10 <ESP_Send>
 8000c14:	4829      	ldr	r0, [pc, #164]	@ (8000cbc <ESP_Init+0xf4>)
 8000c16:	21c8      	movs	r1, #200	@ 0xc8
 8000c18:	f7ff ff7a 	bl	8000b10 <ESP_Send>
 8000c1c:	4828      	ldr	r0, [pc, #160]	@ (8000cc0 <ESP_Init+0xf8>)
 8000c1e:	f44f 71fa 	mov.w	r1, #500	@ 0x1f4
 8000c22:	f7ff ff75 	bl	8000b10 <ESP_Send>
 8000c26:	4827      	ldr	r0, [pc, #156]	@ (8000cc4 <ESP_Init+0xfc>)
 8000c28:	f44f 71fa 	mov.w	r1, #500	@ 0x1f4
 8000c2c:	f7ff ff70 	bl	8000b10 <ESP_Send>
 8000c30:	4825      	ldr	r0, [pc, #148]	@ (8000cc8 <ESP_Init+0x100>)
 8000c32:	21c8      	movs	r1, #200	@ 0xc8
 8000c34:	f7ff ff6c 	bl	8000b10 <ESP_Send>
 8000c38:	2100      	movs	r1, #0
 8000c3a:	4620      	mov	r0, r4
 8000c3c:	f7ff ff68 	bl	8000b10 <ESP_Send>
 8000c40:	f640 31b8 	movw	r1, #3000	@ 0xbb8
 8000c44:	4628      	mov	r0, r5
 8000c46:	f7ff ff81 	bl	8000b4c <ESP_WaitFor>
 8000c4a:	b970      	cbnz	r0, 8000c6a <ESP_Init+0xa2>
 8000c4c:	f44f 717a 	mov.w	r1, #1000	@ 0x3e8
 8000c50:	4630      	mov	r0, r6
 8000c52:	f7ff ff7b 	bl	8000b4c <ESP_WaitFor>
 8000c56:	b940      	cbnz	r0, 8000c6a <ESP_Init+0xa2>
 8000c58:	f44f 70fa 	mov.w	r0, #500	@ 0x1f4
 8000c5c:	f001 fbc8 	bl	80023f0 <HAL_Delay>
 8000c60:	f44f 70fa 	mov.w	r0, #500	@ 0x1f4
 8000c64:	f001 fbc4 	bl	80023f0 <HAL_Delay>
 8000c68:	e7e6      	b.n	8000c38 <ESP_Init+0x70>
 8000c6a:	4818      	ldr	r0, [pc, #96]	@ (8000ccc <ESP_Init+0x104>)
 8000c6c:	21c8      	movs	r1, #200	@ 0xc8
 8000c6e:	f7ff ff4f 	bl	8000b10 <ESP_Send>
 8000c72:	4817      	ldr	r0, [pc, #92]	@ (8000cd0 <ESP_Init+0x108>)
 8000c74:	2100      	movs	r1, #0
 8000c76:	f7ff ff4b 	bl	8000b10 <ESP_Send>
 8000c7a:	4816      	ldr	r0, [pc, #88]	@ (8000cd4 <ESP_Init+0x10c>)
 8000c7c:	f44f 61fa 	mov.w	r1, #2000	@ 0x7d0
 8000c80:	f7ff ff64 	bl	8000b4c <ESP_WaitFor>
 8000c84:	b158      	cbz	r0, 8000c9e <ESP_Init+0xd6>
 8000c86:	4c07      	ldr	r4, [pc, #28]	@ (8000ca4 <ESP_Init+0xdc>)
 8000c88:	230a      	movs	r3, #10
 8000c8a:	2201      	movs	r2, #1
 8000c8c:	f10d 0107 	add.w	r1, sp, #7
 8000c90:	4620      	mov	r0, r4
 8000c92:	f002 ff84 	bl	8003b9e <HAL_UART_Receive>
 8000c96:	2800      	cmp	r0, #0
 8000c98:	d0f6      	beq.n	8000c88 <ESP_Init+0xc0>
 8000c9a:	b002      	add	sp, #8
 8000c9c:	bd70      	pop	{r4, r5, r6, pc}
 8000c9e:	e7fe      	b.n	8000c9e <ESP_Init+0xd6>
 8000ca0:	08004733 	.word	0x08004733
 8000ca4:	20000340 	.word	0x20000340
 8000ca8:	080047b3 	.word	0x080047b3
 8000cac:	080047da 	.word	0x080047da
 8000cb0:	080047dd 	.word	0x080047dd
 8000cb4:	08004735 	.word	0x08004735
 8000cb8:	0800473c 	.word	0x0800473c
 8000cbc:	08004741 	.word	0x08004741
 8000cc0:	0800474d 	.word	0x0800474d
 8000cc4:	08004785 	.word	0x08004785
 8000cc8:	080047a7 	.word	0x080047a7
 8000ccc:	080047ef 	.word	0x080047ef
 8000cd0:	080047fc 	.word	0x080047fc
 8000cd4:	08004807 	.word	0x08004807

08000cd8 <SystemClock_Config>:
 8000cd8:	b510      	push	{r4, lr}
 8000cda:	2228      	movs	r2, #40	@ 0x28
 8000cdc:	b094      	sub	sp, #80	@ 0x50
 8000cde:	2100      	movs	r1, #0
 8000ce0:	eb0d 0002 	add.w	r0, sp, r2
 8000ce4:	f003 f9e0 	bl	80040a8 <memset>
 8000ce8:	2214      	movs	r2, #20
 8000cea:	2100      	movs	r1, #0
 8000cec:	a803      	add	r0, sp, #12
 8000cee:	f003 f9db 	bl	80040a8 <memset>
 8000cf2:	2300      	movs	r3, #0
 8000cf4:	4a18      	ldr	r2, [pc, #96]	@ (8000d58 <SystemClock_Config+0x80>)
 8000cf6:	9301      	str	r3, [sp, #4]
 8000cf8:	6c11      	ldr	r1, [r2, #64]	@ 0x40
 8000cfa:	f041 5180 	orr.w	r1, r1, #268435456	@ 0x10000000
 8000cfe:	6411      	str	r1, [r2, #64]	@ 0x40
 8000d00:	6c12      	ldr	r2, [r2, #64]	@ 0x40
 8000d02:	f002 5280 	and.w	r2, r2, #268435456	@ 0x10000000
 8000d06:	9201      	str	r2, [sp, #4]
 8000d08:	9a01      	ldr	r2, [sp, #4]
 8000d0a:	4a14      	ldr	r2, [pc, #80]	@ (8000d5c <SystemClock_Config+0x84>)
 8000d0c:	9302      	str	r3, [sp, #8]
 8000d0e:	6811      	ldr	r1, [r2, #0]
 8000d10:	f441 4140 	orr.w	r1, r1, #49152	@ 0xc000
 8000d14:	6011      	str	r1, [r2, #0]
 8000d16:	6812      	ldr	r2, [r2, #0]
 8000d18:	930e      	str	r3, [sp, #56]	@ 0x38
 8000d1a:	f402 4240 	and.w	r2, r2, #49152	@ 0xc000
 8000d1e:	9202      	str	r2, [sp, #8]
 8000d20:	9a02      	ldr	r2, [sp, #8]
 8000d22:	2401      	movs	r4, #1
 8000d24:	f44f 3280 	mov.w	r2, #65536	@ 0x10000
 8000d28:	a808      	add	r0, sp, #32
 8000d2a:	e9cd 4208 	strd	r4, r2, [sp, #32]
 8000d2e:	f002 f93f 	bl	8002fb0 <HAL_RCC_OscConfig>
 8000d32:	4601      	mov	r1, r0
 8000d34:	b108      	cbz	r0, 8000d3a <SystemClock_Config+0x62>
 8000d36:	b672      	cpsid	i
 8000d38:	e7fe      	b.n	8000d38 <SystemClock_Config+0x60>
 8000d3a:	e9cd 0005 	strd	r0, r0, [sp, #20]
 8000d3e:	230f      	movs	r3, #15
 8000d40:	9007      	str	r0, [sp, #28]
 8000d42:	a803      	add	r0, sp, #12
 8000d44:	e9cd 3403 	strd	r3, r4, [sp, #12]
 8000d48:	f002 fb0e 	bl	8003368 <HAL_RCC_ClockConfig>
 8000d4c:	b108      	cbz	r0, 8000d52 <SystemClock_Config+0x7a>
 8000d4e:	b672      	cpsid	i
 8000d50:	e7fe      	b.n	8000d50 <SystemClock_Config+0x78>
 8000d52:	b014      	add	sp, #80	@ 0x50
 8000d54:	bd10      	pop	{r4, pc}
 8000d56:	bf00      	nop
 8000d58:	40023800 	.word	0x40023800
 8000d5c:	40007000 	.word	0x40007000

08000d60 <main>:
 8000d60:	e92d 4ff0 	stmdb	sp!, {r4, r5, r6, r7, r8, r9, sl, fp, lr}
 8000d64:	ed2d 8b0c 	vpush	{d8-d13}
 8000d68:	4e74      	ldr	r6, [pc, #464]	@ (8000f3c <main+0x1dc>)
 8000d6a:	b097      	sub	sp, #92	@ 0x5c
 8000d6c:	f001 fb14 	bl	8002398 <HAL_Init>
 8000d70:	f7ff ffb2 	bl	8000cd8 <SystemClock_Config>
 8000d74:	f7ff fdd4 	bl	8000920 <MX_GPIO_Init>
 8000d78:	f7ff fe50 	bl	8000a1c <MX_I2C1_Init>
 8000d7c:	f001 f9f8 	bl	8002170 <MX_TIM1_Init>
 8000d80:	f001 fa62 	bl	8002248 <MX_USART6_UART_Init>
 8000d84:	2100      	movs	r1, #0
 8000d86:	4630      	mov	r0, r6
 8000d88:	f002 fd70 	bl	800386c <HAL_TIM_PWM_Start>
 8000d8c:	2104      	movs	r1, #4
 8000d8e:	4630      	mov	r0, r6
 8000d90:	f002 fd6c 	bl	800386c <HAL_TIM_PWM_Start>
 8000d94:	2108      	movs	r1, #8
 8000d96:	4630      	mov	r0, r6
 8000d98:	f002 fd68 	bl	800386c <HAL_TIM_PWM_Start>
 8000d9c:	210c      	movs	r1, #12
 8000d9e:	4630      	mov	r0, r6
 8000da0:	f002 fd64 	bl	800386c <HAL_TIM_PWM_Start>
 8000da4:	6832      	ldr	r2, [r6, #0]
 8000da6:	6c53      	ldr	r3, [r2, #68]	@ 0x44
 8000da8:	f443 4300 	orr.w	r3, r3, #32768	@ 0x8000
 8000dac:	6453      	str	r3, [r2, #68]	@ 0x44
 8000dae:	f7ff fe89 	bl	8000ac4 <PWM_SetSafe>
 8000db2:	f7ff ff09 	bl	8000bc8 <ESP_Init>
 8000db6:	4862      	ldr	r0, [pc, #392]	@ (8000f40 <main+0x1e0>)
 8000db8:	f7ff fbbe 	bl	8000538 <MPU6050_Init>
 8000dbc:	b108      	cbz	r0, 8000dc2 <main+0x62>
 8000dbe:	b672      	cpsid	i
 8000dc0:	e7fe      	b.n	8000dc0 <main+0x60>
 8000dc2:	4960      	ldr	r1, [pc, #384]	@ (8000f44 <main+0x1e4>)
 8000dc4:	485e      	ldr	r0, [pc, #376]	@ (8000f40 <main+0x1e0>)
 8000dc6:	f44f 727a 	mov.w	r2, #1000	@ 0x3e8
 8000dca:	f7ff fc61 	bl	8000690 <MPU6050_CalibrateGyro>
 8000dce:	4681      	mov	r9, r0
 8000dd0:	b108      	cbz	r0, 8000dd6 <main+0x76>
 8000dd2:	b672      	cpsid	i
 8000dd4:	e7fe      	b.n	8000dd4 <main+0x74>
 8000dd6:	4d5c      	ldr	r5, [pc, #368]	@ (8000f48 <main+0x1e8>)
 8000dd8:	ed9f 0a5c 	vldr	s0, [pc, #368]	@ 8000f4c <main+0x1ec>
 8000ddc:	ed9f 8a5c 	vldr	s16, [pc, #368]	@ 8000f50 <main+0x1f0>
 8000de0:	4f5c      	ldr	r7, [pc, #368]	@ (8000f54 <main+0x1f4>)
 8000de2:	f8df 81f4 	ldr.w	r8, [pc, #500]	@ 8000fd8 <main+0x278>
 8000de6:	4c5c      	ldr	r4, [pc, #368]	@ (8000f58 <main+0x1f8>)
 8000de8:	4628      	mov	r0, r5
 8000dea:	f7ff fca1 	bl	8000730 <Madgwick_Init>
 8000dee:	4b5b      	ldr	r3, [pc, #364]	@ (8000f5c <main+0x1fc>)
 8000df0:	ed85 8a01 	vstr	s16, [r5, #4]
 8000df4:	ed83 8a00 	vstr	s16, [r3]
 8000df8:	4b59      	ldr	r3, [pc, #356]	@ (8000f60 <main+0x200>)
 8000dfa:	ed85 8a02 	vstr	s16, [r5, #8]
 8000dfe:	ed83 8a00 	vstr	s16, [r3]
 8000e02:	4b58      	ldr	r3, [pc, #352]	@ (8000f64 <main+0x204>)
 8000e04:	ed85 8a03 	vstr	s16, [r5, #12]
 8000e08:	eef7 8a00 	vmov.f32	s17, #112	@ 0x3f800000  1.0
 8000e0c:	edc3 8a00 	vstr	s17, [r3]
 8000e10:	edc5 8a00 	vstr	s17, [r5]
 8000e14:	f001 fae6 	bl	80023e4 <HAL_GetTick>
 8000e18:	4b53      	ldr	r3, [pc, #332]	@ (8000f68 <main+0x208>)
 8000e1a:	f887 9000 	strb.w	r9, [r7]
 8000e1e:	6018      	str	r0, [r3, #0]
 8000e20:	4b52      	ldr	r3, [pc, #328]	@ (8000f6c <main+0x20c>)
 8000e22:	f8c8 9000 	str.w	r9, [r8]
 8000e26:	6018      	str	r0, [r3, #0]
 8000e28:	4b51      	ldr	r3, [pc, #324]	@ (8000f70 <main+0x210>)
 8000e2a:	4852      	ldr	r0, [pc, #328]	@ (8000f74 <main+0x214>)
 8000e2c:	f8c3 9000 	str.w	r9, [r3]
 8000e30:	4b51      	ldr	r3, [pc, #324]	@ (8000f78 <main+0x218>)
 8000e32:	ed83 8a00 	vstr	s16, [r3]
 8000e36:	4b51      	ldr	r3, [pc, #324]	@ (8000f7c <main+0x21c>)
 8000e38:	ed83 8a00 	vstr	s16, [r3]
 8000e3c:	4b50      	ldr	r3, [pc, #320]	@ (8000f80 <main+0x220>)
 8000e3e:	ed83 8a00 	vstr	s16, [r3]
 8000e42:	4b50      	ldr	r3, [pc, #320]	@ (8000f84 <main+0x224>)
 8000e44:	ed83 8a00 	vstr	s16, [r3]
 8000e48:	4b4f      	ldr	r3, [pc, #316]	@ (8000f88 <main+0x228>)
 8000e4a:	ed83 8a00 	vstr	s16, [r3]
 8000e4e:	4b4f      	ldr	r3, [pc, #316]	@ (8000f8c <main+0x22c>)
 8000e50:	ed83 8a00 	vstr	s16, [r3]
 8000e54:	4b4e      	ldr	r3, [pc, #312]	@ (8000f90 <main+0x230>)
 8000e56:	f8a3 9000 	strh.w	r9, [r3]
 8000e5a:	4b4e      	ldr	r3, [pc, #312]	@ (8000f94 <main+0x234>)
 8000e5c:	f8a3 9000 	strh.w	r9, [r3]
 8000e60:	4b4d      	ldr	r3, [pc, #308]	@ (8000f98 <main+0x238>)
 8000e62:	f8c3 9000 	str.w	r9, [r3]
 8000e66:	4b4d      	ldr	r3, [pc, #308]	@ (8000f9c <main+0x23c>)
 8000e68:	f883 9000 	strb.w	r9, [r3]
 8000e6c:	4b4c      	ldr	r3, [pc, #304]	@ (8000fa0 <main+0x240>)
 8000e6e:	ed83 8a00 	vstr	s16, [r3]
 8000e72:	4b4c      	ldr	r3, [pc, #304]	@ (8000fa4 <main+0x244>)
 8000e74:	ed83 8a00 	vstr	s16, [r3]
 8000e78:	4b4b      	ldr	r3, [pc, #300]	@ (8000fa8 <main+0x248>)
 8000e7a:	ed83 8a00 	vstr	s16, [r3]
 8000e7e:	4b4b      	ldr	r3, [pc, #300]	@ (8000fac <main+0x24c>)
 8000e80:	f883 9000 	strb.w	r9, [r3]
 8000e84:	4b4a      	ldr	r3, [pc, #296]	@ (8000fb0 <main+0x250>)
 8000e86:	f883 9000 	strb.w	r9, [r3]
 8000e8a:	4b4a      	ldr	r3, [pc, #296]	@ (8000fb4 <main+0x254>)
 8000e8c:	ed83 8a00 	vstr	s16, [r3]
 8000e90:	4b49      	ldr	r3, [pc, #292]	@ (8000fb8 <main+0x258>)
 8000e92:	ed83 8a00 	vstr	s16, [r3]
 8000e96:	4b49      	ldr	r3, [pc, #292]	@ (8000fbc <main+0x25c>)
 8000e98:	f883 9000 	strb.w	r9, [r3]
 8000e9c:	4b48      	ldr	r3, [pc, #288]	@ (8000fc0 <main+0x260>)
 8000e9e:	ed83 8a00 	vstr	s16, [r3]
 8000ea2:	4b48      	ldr	r3, [pc, #288]	@ (8000fc4 <main+0x264>)
 8000ea4:	ed83 8a00 	vstr	s16, [r3]
 8000ea8:	4b47      	ldr	r3, [pc, #284]	@ (8000fc8 <main+0x268>)
 8000eaa:	464a      	mov	r2, r9
 8000eac:	f44f 7100 	mov.w	r1, #512	@ 0x200
 8000eb0:	f8a3 9000 	strh.w	r9, [r3]
 8000eb4:	f001 fc2e 	bl	8002714 <HAL_GPIO_WritePin>
 8000eb8:	f000 ffec 	bl	8001e94 <Protocol_Init>
 8000ebc:	4b43      	ldr	r3, [pc, #268]	@ (8000fcc <main+0x26c>)
 8000ebe:	f8a3 9000 	strh.w	r9, [r3]
 8000ec2:	4b43      	ldr	r3, [pc, #268]	@ (8000fd0 <main+0x270>)
 8000ec4:	4620      	mov	r0, r4
 8000ec6:	f8a3 9000 	strh.w	r9, [r3]
 8000eca:	f002 febf 	bl	8003c4c <HAL_UART_AbortReceive>
 8000ece:	6823      	ldr	r3, [r4, #0]
 8000ed0:	f8cd 900c 	str.w	r9, [sp, #12]
 8000ed4:	681a      	ldr	r2, [r3, #0]
 8000ed6:	9203      	str	r2, [sp, #12]
 8000ed8:	685b      	ldr	r3, [r3, #4]
 8000eda:	9303      	str	r3, [sp, #12]
 8000edc:	493d      	ldr	r1, [pc, #244]	@ (8000fd4 <main+0x274>)
 8000ede:	9b03      	ldr	r3, [sp, #12]
 8000ee0:	f8df 90f8 	ldr.w	r9, [pc, #248]	@ 8000fdc <main+0x27c>
 8000ee4:	2201      	movs	r2, #1
 8000ee6:	4620      	mov	r0, r4
 8000ee8:	f003 f8cd 	bl	8004086 <HAL_UART_Receive_IT>
 8000eec:	f001 fa7a 	bl	80023e4 <HAL_GetTick>
 8000ef0:	4a1e      	ldr	r2, [pc, #120]	@ (8000f6c <main+0x20c>)
 8000ef2:	6813      	ldr	r3, [r2, #0]
 8000ef4:	1ac3      	subs	r3, r0, r3
 8000ef6:	2b09      	cmp	r3, #9
 8000ef8:	4604      	mov	r4, r0
 8000efa:	d90d      	bls.n	8000f18 <main+0x1b8>
 8000efc:	6010      	str	r0, [r2, #0]
 8000efe:	4911      	ldr	r1, [pc, #68]	@ (8000f44 <main+0x1e4>)
 8000f00:	480f      	ldr	r0, [pc, #60]	@ (8000f40 <main+0x1e0>)
 8000f02:	f7ff fb47 	bl	8000594 <MPU6050_ReadRaw>
 8000f06:	480f      	ldr	r0, [pc, #60]	@ (8000f44 <main+0x1e4>)
 8000f08:	f7ff fb70 	bl	80005ec <MPU6050_ComputeScaled>
 8000f0c:	4b16      	ldr	r3, [pc, #88]	@ (8000f68 <main+0x208>)
 8000f0e:	681b      	ldr	r3, [r3, #0]
 8000f10:	2b00      	cmp	r3, #0
 8000f12:	d169      	bne.n	8000fe8 <main+0x288>
 8000f14:	4b14      	ldr	r3, [pc, #80]	@ (8000f68 <main+0x208>)
 8000f16:	601c      	str	r4, [r3, #0]
 8000f18:	f899 3000 	ldrb.w	r3, [r9]
 8000f1c:	b12b      	cbz	r3, 8000f2a <main+0x1ca>
 8000f1e:	783b      	ldrb	r3, [r7, #0]
 8000f20:	f003 02ff 	and.w	r2, r3, #255	@ 0xff
 8000f24:	2b00      	cmp	r3, #0
 8000f26:	f000 825d 	beq.w	80013e4 <main+0x684>
 8000f2a:	f7ff fdcb 	bl	8000ac4 <PWM_SetSafe>
 8000f2e:	4c28      	ldr	r4, [pc, #160]	@ (8000fd0 <main+0x270>)
 8000f30:	f8df b098 	ldr.w	fp, [pc, #152]	@ 8000fcc <main+0x26c>
 8000f34:	f8df a0a8 	ldr.w	sl, [pc, #168]	@ 8000fe0 <main+0x280>
 8000f38:	f000 bdbc 	b.w	8001ab4 <main+0xd54>
 8000f3c:	200002f8 	.word	0x200002f8
 8000f40:	2000007c 	.word	0x2000007c
 8000f44:	20000278 	.word	0x20000278
 8000f48:	20000264 	.word	0x20000264
 8000f4c:	3d4ccccd 	.word	0x3d4ccccd
 8000f50:	00000000 	.word	0x00000000
 8000f54:	20000250 	.word	0x20000250
 8000f58:	20000340 	.word	0x20000340
 8000f5c:	20000244 	.word	0x20000244
 8000f60:	20000240 	.word	0x20000240
 8000f64:	20000000 	.word	0x20000000
 8000f68:	20000260 	.word	0x20000260
 8000f6c:	20000254 	.word	0x20000254
 8000f70:	20000248 	.word	0x20000248
 8000f74:	40020800 	.word	0x40020800
 8000f78:	20000210 	.word	0x20000210
 8000f7c:	2000020c 	.word	0x2000020c
 8000f80:	20000208 	.word	0x20000208
 8000f84:	200001fc 	.word	0x200001fc
 8000f88:	200001f8 	.word	0x200001f8
 8000f8c:	200001f4 	.word	0x200001f4
 8000f90:	20000204 	.word	0x20000204
 8000f94:	200001f2 	.word	0x200001f2
 8000f98:	20000200 	.word	0x20000200
 8000f9c:	200001f1 	.word	0x200001f1
 8000fa0:	20000238 	.word	0x20000238
 8000fa4:	20000234 	.word	0x20000234
 8000fa8:	20000230 	.word	0x20000230
 8000fac:	2000022c 	.word	0x2000022c
 8000fb0:	200001f0 	.word	0x200001f0
 8000fb4:	200001ec 	.word	0x200001ec
 8000fb8:	200001e8 	.word	0x200001e8
 8000fbc:	200001e4 	.word	0x200001e4
 8000fc0:	200001e0 	.word	0x200001e0
 8000fc4:	200001dc 	.word	0x200001dc
 8000fc8:	200001da 	.word	0x200001da
 8000fcc:	200000d8 	.word	0x200000d8
 8000fd0:	200000d6 	.word	0x200000d6
 8000fd4:	200000d4 	.word	0x200000d4
 8000fd8:	2000024c 	.word	0x2000024c
 8000fdc:	2000023c 	.word	0x2000023c
 8000fe0:	200000da 	.word	0x200000da
 8000fe4:	3a83126f 	.word	0x3a83126f
 8000fe8:	1ae3      	subs	r3, r4, r3
 8000fea:	ee09 3a10 	vmov	s18, r3
 8000fee:	ed5f 7a03 	vldr	s15, [pc, #-12]	@ 8000fe4 <main+0x284>
 8000ff2:	4bd2      	ldr	r3, [pc, #840]	@ (800133c <main+0x5dc>)
 8000ff4:	eeb8 9a49 	vcvt.f32.u32	s18, s18
 8000ff8:	601c      	str	r4, [r3, #0]
 8000ffa:	ee29 9a27 	vmul.f32	s18, s18, s15
 8000ffe:	eeb5 9ac0 	vcmpe.f32	s18, #0.0
 8001002:	eef1 fa10 	vmrs	APSR_nzcv, fpscr
 8001006:	d987      	bls.n	8000f18 <main+0x1b8>
 8001008:	eddf 7acd 	vldr	s15, [pc, #820]	@ 8001340 <main+0x5e0>
 800100c:	ed9f 6acd 	vldr	s12, [pc, #820]	@ 8001344 <main+0x5e4>
 8001010:	f8df b36c 	ldr.w	fp, [pc, #876]	@ 8001380 <main+0x620>
 8001014:	4bcc      	ldr	r3, [pc, #816]	@ (8001348 <main+0x5e8>)
 8001016:	eddb 6a04 	vldr	s13, [fp, #16]
 800101a:	edd3 9a00 	vldr	s19, [r3]
 800101e:	eeb4 9a67 	vcmp.f32	s18, s15
 8001022:	eef1 fa10 	vmrs	APSR_nzcv, fpscr
 8001026:	bfc8      	it	gt
 8001028:	eeb0 9a67 	vmovgt.f32	s18, s15
 800102c:	ee39 6a06 	vadd.f32	s12, s18, s12
 8001030:	eddb 7a05 	vldr	s15, [fp, #20]
 8001034:	ee89 7a06 	vdiv.f32	s14, s18, s12
 8001038:	ed9b 6a03 	vldr	s12, [fp, #12]
 800103c:	ee36 6a69 	vsub.f32	s12, s12, s19
 8001040:	eee7 9a06 	vfma.f32	s19, s14, s12
 8001044:	edc3 9a00 	vstr	s19, [r3]
 8001048:	4bc0      	ldr	r3, [pc, #768]	@ (800134c <main+0x5ec>)
 800104a:	ed93 aa00 	vldr	s20, [r3]
 800104e:	ee76 6aca 	vsub.f32	s13, s13, s20
 8001052:	eea7 aa26 	vfma.f32	s20, s14, s13
 8001056:	ed83 aa00 	vstr	s20, [r3]
 800105a:	4bbd      	ldr	r3, [pc, #756]	@ (8001350 <main+0x5f0>)
 800105c:	edd3 aa00 	vldr	s21, [r3]
 8001060:	ee2a 0a0a 	vmul.f32	s0, s20, s20
 8001064:	ee77 7aea 	vsub.f32	s15, s15, s21
 8001068:	eea9 0aa9 	vfma.f32	s0, s19, s19
 800106c:	eee7 aa27 	vfma.f32	s21, s14, s15
 8001070:	eeaa 0aaa 	vfma.f32	s0, s21, s21
 8001074:	edc3 aa00 	vstr	s21, [r3]
 8001078:	f003 f89a 	bl	80041b0 <sqrtf>
 800107c:	eddf 7ab5 	vldr	s15, [pc, #724]	@ 8001354 <main+0x5f4>
 8001080:	eeb4 0ae7 	vcmpe.f32	s0, s15
 8001084:	eef1 fa10 	vmrs	APSR_nzcv, fpscr
 8001088:	f2c0 811a 	blt.w	80012c0 <main+0x560>
 800108c:	eddf 7ab2 	vldr	s15, [pc, #712]	@ 8001358 <main+0x5f8>
 8001090:	eeb4 0ae7 	vcmpe.f32	s0, s15
 8001094:	eef1 fa10 	vmrs	APSR_nzcv, fpscr
 8001098:	bf94      	ite	ls
 800109a:	f04f 0a01 	movls.w	sl, #1
 800109e:	f04f 0a00 	movhi.w	sl, #0
 80010a2:	eddf 7aae 	vldr	s15, [pc, #696]	@ 800135c <main+0x5fc>
 80010a6:	ed9b 0a06 	vldr	s0, [fp, #24]
 80010aa:	eddb 0a07 	vldr	s1, [fp, #28]
 80010ae:	ed9b 1a08 	vldr	s2, [fp, #32]
 80010b2:	ee20 0a27 	vmul.f32	s0, s0, s15
 80010b6:	ee60 0aa7 	vmul.f32	s1, s1, s15
 80010ba:	ee21 1a27 	vmul.f32	s2, s2, s15
 80010be:	eeb0 3a49 	vmov.f32	s6, s18
 80010c2:	f1ba 0f00 	cmp.w	sl, #0
 80010c6:	f000 80fe 	beq.w	80012c6 <main+0x566>
 80010ca:	eef0 2a6a 	vmov.f32	s5, s21
 80010ce:	eeb0 2a4a 	vmov.f32	s4, s20
 80010d2:	eef0 1a69 	vmov.f32	s3, s19
 80010d6:	48a2      	ldr	r0, [pc, #648]	@ (8001360 <main+0x600>)
 80010d8:	eddf caa2 	vldr	s25, [pc, #648]	@ 8001364 <main+0x604>
 80010dc:	f7ff fb32 	bl	8000744 <Madgwick_UpdateIMU>
 80010e0:	ed95 ba02 	vldr	s22, [r5, #8]
 80010e4:	edd5 aa03 	vldr	s21, [r5, #12]
 80010e8:	ed95 9a01 	vldr	s18, [r5, #4]
 80010ec:	ed95 da00 	vldr	s26, [r5]
 80010f0:	ee6b ba0b 	vmul.f32	s23, s22, s22
 80010f4:	ee2b 0a2a 	vmul.f32	s0, s22, s21
 80010f8:	eef0 7a6b 	vmov.f32	s15, s23
 80010fc:	eee9 7a09 	vfma.f32	s15, s18, s18
 8001100:	eead 0a09 	vfma.f32	s0, s26, s18
 8001104:	eeb0 ca00 	vmov.f32	s24, #0	@ 0x40000000  2.0
 8001108:	eef0 0a68 	vmov.f32	s1, s17
 800110c:	eee7 0acc 	vfms.f32	s1, s15, s24
 8001110:	ee30 0a00 	vadd.f32	s0, s0, s0
 8001114:	f003 f84a 	bl	80041ac <atan2f>
 8001118:	ee20 aa2c 	vmul.f32	s20, s0, s25
 800111c:	ee2a 0ac9 	vnmul.f32	s0, s21, s18
 8001120:	eeff 7a00 	vmov.f32	s15, #240	@ 0xbf800000 -1.0
 8001124:	eead 0a0b 	vfma.f32	s0, s26, s22
 8001128:	ee30 0a00 	vadd.f32	s0, s0, s0
 800112c:	eeb4 0ae7 	vcmpe.f32	s0, s15
 8001130:	eef1 fa10 	vmrs	APSR_nzcv, fpscr
 8001134:	f100 80ce 	bmi.w	80012d4 <main+0x574>
 8001138:	eeb4 0a68 	vcmp.f32	s0, s17
 800113c:	eef1 fa10 	vmrs	APSR_nzcv, fpscr
 8001140:	eef7 7a00 	vmov.f32	s15, #112	@ 0x3f800000  1.0
 8001144:	bfc8      	it	gt
 8001146:	eeb0 0a67 	vmovgt.f32	s0, s15
 800114a:	f003 f803 	bl	8004154 <asinf>
 800114e:	ee29 9a0b 	vmul.f32	s18, s18, s22
 8001152:	eeea baaa 	vfma.f32	s23, s21, s21
 8001156:	eead 9a2a 	vfma.f32	s18, s26, s21
 800115a:	eef0 0a68 	vmov.f32	s1, s17
 800115e:	ee60 9a2c 	vmul.f32	s19, s0, s25
 8001162:	eeeb 0acc 	vfms.f32	s1, s23, s24
 8001166:	ee39 0a09 	vadd.f32	s0, s18, s18
 800116a:	f003 f81f 	bl	80041ac <atan2f>
 800116e:	eddf 7a7e 	vldr	s15, [pc, #504]	@ 8001368 <main+0x608>
 8001172:	4b7e      	ldr	r3, [pc, #504]	@ (800136c <main+0x60c>)
 8001174:	497e      	ldr	r1, [pc, #504]	@ (8001370 <main+0x610>)
 8001176:	ee2a 7a27 	vmul.f32	s14, s20, s15
 800117a:	ee60 6a2c 	vmul.f32	s13, s0, s25
 800117e:	eebd 7ac7 	vcvt.s32.f32	s14, s14
 8001182:	ee66 6aa7 	vmul.f32	s13, s13, s15
 8001186:	ee17 2a10 	vmov	r2, s14
 800118a:	ee29 7aa7 	vmul.f32	s14, s19, s15
 800118e:	801a      	strh	r2, [r3, #0]
 8001190:	eebd 7ac7 	vcvt.s32.f32	s14, s14
 8001194:	eefd 6ae6 	vcvt.s32.f32	s13, s13
 8001198:	ee17 2a10 	vmov	r2, s14
 800119c:	805a      	strh	r2, [r3, #2]
 800119e:	ee16 2a90 	vmov	r2, s13
 80011a2:	809a      	strh	r2, [r3, #4]
 80011a4:	4b73      	ldr	r3, [pc, #460]	@ (8001374 <main+0x614>)
 80011a6:	4a74      	ldr	r2, [pc, #464]	@ (8001378 <main+0x618>)
 80011a8:	ed83 aa00 	vstr	s20, [r3]
 80011ac:	4b73      	ldr	r3, [pc, #460]	@ (800137c <main+0x61c>)
 80011ae:	edc3 9a00 	vstr	s19, [r3]
 80011b2:	4b73      	ldr	r3, [pc, #460]	@ (8001380 <main+0x620>)
 80011b4:	edd3 6a06 	vldr	s13, [r3, #24]
 80011b8:	ed93 7a07 	vldr	s14, [r3, #28]
 80011bc:	edc2 6a00 	vstr	s13, [r2]
 80011c0:	edd3 7a08 	vldr	s15, [r3, #32]
 80011c4:	4a6f      	ldr	r2, [pc, #444]	@ (8001384 <main+0x624>)
 80011c6:	4b70      	ldr	r3, [pc, #448]	@ (8001388 <main+0x628>)
 80011c8:	ed82 7a00 	vstr	s14, [r2]
 80011cc:	edc3 7a00 	vstr	s15, [r3]
 80011d0:	4b6e      	ldr	r3, [pc, #440]	@ (800138c <main+0x62c>)
 80011d2:	2201      	movs	r2, #1
 80011d4:	701a      	strb	r2, [r3, #0]
 80011d6:	780b      	ldrb	r3, [r1, #0]
 80011d8:	2b00      	cmp	r3, #0
 80011da:	d151      	bne.n	8001280 <main+0x520>
 80011dc:	f899 3000 	ldrb.w	r3, [r9]
 80011e0:	f003 0bff 	and.w	fp, r3, #255	@ 0xff
 80011e4:	2b00      	cmp	r3, #0
 80011e6:	d14b      	bne.n	8001280 <main+0x520>
 80011e8:	eef0 6ae6 	vabs.f32	s13, s13
 80011ec:	eeb0 6a04 	vmov.f32	s12, #4	@ 0x40200000  2.5
 80011f0:	eef4 6ac6 	vcmpe.f32	s13, s12
 80011f4:	eef1 fa10 	vmrs	APSR_nzcv, fpscr
 80011f8:	4b65      	ldr	r3, [pc, #404]	@ (8001390 <main+0x630>)
 80011fa:	d56e      	bpl.n	80012da <main+0x57a>
 80011fc:	eeb0 7ac7 	vabs.f32	s14, s14
 8001200:	eeb4 7ac6 	vcmpe.f32	s14, s12
 8001204:	eef1 fa10 	vmrs	APSR_nzcv, fpscr
 8001208:	d567      	bpl.n	80012da <main+0x57a>
 800120a:	eef0 7ae7 	vabs.f32	s15, s15
 800120e:	eef4 7ac6 	vcmpe.f32	s15, s12
 8001212:	eef1 fa10 	vmrs	APSR_nzcv, fpscr
 8001216:	d560      	bpl.n	80012da <main+0x57a>
 8001218:	f1ba 0f00 	cmp.w	sl, #0
 800121c:	d05d      	beq.n	80012da <main+0x57a>
 800121e:	edd3 6a00 	vldr	s13, [r3]
 8001222:	485c      	ldr	r0, [pc, #368]	@ (8001394 <main+0x634>)
 8001224:	ee7a 6a26 	vadd.f32	s13, s20, s13
 8001228:	edc3 6a00 	vstr	s13, [r3]
 800122c:	4b5a      	ldr	r3, [pc, #360]	@ (8001398 <main+0x638>)
 800122e:	ed93 7a00 	vldr	s14, [r3]
 8001232:	ee39 7a87 	vadd.f32	s14, s19, s14
 8001236:	ed83 7a00 	vstr	s14, [r3]
 800123a:	8803      	ldrh	r3, [r0, #0]
 800123c:	4413      	add	r3, r2
 800123e:	b29b      	uxth	r3, r3
 8001240:	2bc7      	cmp	r3, #199	@ 0xc7
 8001242:	8003      	strh	r3, [r0, #0]
 8001244:	d91c      	bls.n	8001280 <main+0x520>
 8001246:	ee07 3a90 	vmov	s15, r3
 800124a:	eef8 7a67 	vcvt.f32.u32	s15, s15
 800124e:	4b53      	ldr	r3, [pc, #332]	@ (800139c <main+0x63c>)
 8001250:	4853      	ldr	r0, [pc, #332]	@ (80013a0 <main+0x640>)
 8001252:	ee86 6aa7 	vdiv.f32	s12, s13, s15
 8001256:	eec7 6a27 	vdiv.f32	s13, s14, s15
 800125a:	ed83 6a00 	vstr	s12, [r3]
 800125e:	4b51      	ldr	r3, [pc, #324]	@ (80013a4 <main+0x644>)
 8001260:	edc3 6a00 	vstr	s13, [r3]
 8001264:	700a      	strb	r2, [r1, #0]
 8001266:	f44f 7100 	mov.w	r1, #512	@ 0x200
 800126a:	f001 fa53 	bl	8002714 <HAL_GPIO_WritePin>
 800126e:	203c      	movs	r0, #60	@ 0x3c
 8001270:	f001 f8be 	bl	80023f0 <HAL_Delay>
 8001274:	484a      	ldr	r0, [pc, #296]	@ (80013a0 <main+0x640>)
 8001276:	465a      	mov	r2, fp
 8001278:	f44f 7100 	mov.w	r1, #512	@ 0x200
 800127c:	f001 fa4a 	bl	8002714 <HAL_GPIO_WritePin>
 8001280:	783b      	ldrb	r3, [r7, #0]
 8001282:	eeb0 7aca 	vabs.f32	s14, s20
 8001286:	eef0 7ae9 	vabs.f32	s15, s19
 800128a:	f003 02ff 	and.w	r2, r3, #255	@ 0xff
 800128e:	2b00      	cmp	r3, #0
 8001290:	d141      	bne.n	8001316 <main+0x5b6>
 8001292:	eddf 6a45 	vldr	s13, [pc, #276]	@ 80013a8 <main+0x648>
 8001296:	eeb4 7ae6 	vcmpe.f32	s14, s13
 800129a:	eef1 fa10 	vmrs	APSR_nzcv, fpscr
 800129e:	dc04      	bgt.n	80012aa <main+0x54a>
 80012a0:	eef4 7ae6 	vcmpe.f32	s15, s13
 80012a4:	eef1 fa10 	vmrs	APSR_nzcv, fpscr
 80012a8:	dd32      	ble.n	8001310 <main+0x5b0>
 80012aa:	f8d8 3000 	ldr.w	r3, [r8]
 80012ae:	b9eb      	cbnz	r3, 80012ec <main+0x58c>
 80012b0:	f8c8 4000 	str.w	r4, [r8]
 80012b4:	4a3d      	ldr	r2, [pc, #244]	@ (80013ac <main+0x64c>)
 80012b6:	2301      	movs	r3, #1
 80012b8:	7013      	strb	r3, [r2, #0]
 80012ba:	4a3d      	ldr	r2, [pc, #244]	@ (80013b0 <main+0x650>)
 80012bc:	7013      	strb	r3, [r2, #0]
 80012be:	e62b      	b.n	8000f18 <main+0x1b8>
 80012c0:	f04f 0a00 	mov.w	sl, #0
 80012c4:	e6ed      	b.n	80010a2 <main+0x342>
 80012c6:	eddf 2a3b 	vldr	s5, [pc, #236]	@ 80013b4 <main+0x654>
 80012ca:	eeb0 2a62 	vmov.f32	s4, s5
 80012ce:	eef0 1a62 	vmov.f32	s3, s5
 80012d2:	e700      	b.n	80010d6 <main+0x376>
 80012d4:	eeb0 0a67 	vmov.f32	s0, s15
 80012d8:	e737      	b.n	800114a <main+0x3ea>
 80012da:	ed83 8a00 	vstr	s16, [r3]
 80012de:	4b2e      	ldr	r3, [pc, #184]	@ (8001398 <main+0x638>)
 80012e0:	ed83 8a00 	vstr	s16, [r3]
 80012e4:	4b2b      	ldr	r3, [pc, #172]	@ (8001394 <main+0x634>)
 80012e6:	2200      	movs	r2, #0
 80012e8:	801a      	strh	r2, [r3, #0]
 80012ea:	e7c9      	b.n	8001280 <main+0x520>
 80012ec:	1ae3      	subs	r3, r4, r3
 80012ee:	2b31      	cmp	r3, #49	@ 0x31
 80012f0:	d9e0      	bls.n	80012b4 <main+0x554>
 80012f2:	4b31      	ldr	r3, [pc, #196]	@ (80013b8 <main+0x658>)
 80012f4:	482a      	ldr	r0, [pc, #168]	@ (80013a0 <main+0x640>)
 80012f6:	2201      	movs	r2, #1
 80012f8:	2400      	movs	r4, #0
 80012fa:	f44f 7100 	mov.w	r1, #512	@ 0x200
 80012fe:	601c      	str	r4, [r3, #0]
 8001300:	703a      	strb	r2, [r7, #0]
 8001302:	f001 fa07 	bl	8002714 <HAL_GPIO_WritePin>
 8001306:	f7ff fbdd 	bl	8000ac4 <PWM_SetSafe>
 800130a:	4b2c      	ldr	r3, [pc, #176]	@ (80013bc <main+0x65c>)
 800130c:	701c      	strb	r4, [r3, #0]
 800130e:	e7d1      	b.n	80012b4 <main+0x554>
 8001310:	f8c8 2000 	str.w	r2, [r8]
 8001314:	e7ce      	b.n	80012b4 <main+0x554>
 8001316:	eef3 6a09 	vmov.f32	s13, #57	@ 0x41c80000  25.0
 800131a:	eeb4 7ae6 	vcmpe.f32	s14, s13
 800131e:	eef1 fa10 	vmrs	APSR_nzcv, fpscr
 8001322:	4b25      	ldr	r3, [pc, #148]	@ (80013b8 <main+0x658>)
 8001324:	d55b      	bpl.n	80013de <main+0x67e>
 8001326:	eef4 7ae6 	vcmpe.f32	s15, s13
 800132a:	eef1 fa10 	vmrs	APSR_nzcv, fpscr
 800132e:	d556      	bpl.n	80013de <main+0x67e>
 8001330:	681a      	ldr	r2, [r3, #0]
 8001332:	2a00      	cmp	r2, #0
 8001334:	d144      	bne.n	80013c0 <main+0x660>
 8001336:	601c      	str	r4, [r3, #0]
 8001338:	e7bc      	b.n	80012b4 <main+0x554>
 800133a:	bf00      	nop
 800133c:	20000260 	.word	0x20000260
 8001340:	3ca3d70a 	.word	0x3ca3d70a
 8001344:	3c026136 	.word	0x3c026136
 8001348:	20000244 	.word	0x20000244
 800134c:	20000240 	.word	0x20000240
 8001350:	20000000 	.word	0x20000000
 8001354:	3f4ccccd 	.word	0x3f4ccccd
 8001358:	3f99999a 	.word	0x3f99999a
 800135c:	3c8efa35 	.word	0x3c8efa35
 8001360:	20000264 	.word	0x20000264
 8001364:	42652ee1 	.word	0x42652ee1
 8001368:	42c80000 	.word	0x42c80000
 800136c:	2000025a 	.word	0x2000025a
 8001370:	200001e4 	.word	0x200001e4
 8001374:	20000228 	.word	0x20000228
 8001378:	20000220 	.word	0x20000220
 800137c:	20000224 	.word	0x20000224
 8001380:	20000278 	.word	0x20000278
 8001384:	2000021c 	.word	0x2000021c
 8001388:	20000218 	.word	0x20000218
 800138c:	20000214 	.word	0x20000214
 8001390:	200001e0 	.word	0x200001e0
 8001394:	200001da 	.word	0x200001da
 8001398:	200001dc 	.word	0x200001dc
 800139c:	200001ec 	.word	0x200001ec
 80013a0:	40020800 	.word	0x40020800
 80013a4:	200001e8 	.word	0x200001e8
 80013a8:	420c0000 	.word	0x420c0000
 80013ac:	200001f0 	.word	0x200001f0
 80013b0:	20000258 	.word	0x20000258
 80013b4:	00000000 	.word	0x00000000
 80013b8:	20000248 	.word	0x20000248
 80013bc:	2000023d 	.word	0x2000023d
 80013c0:	1aa4      	subs	r4, r4, r2
 80013c2:	f5b4 7f96 	cmp.w	r4, #300	@ 0x12c
 80013c6:	f4ff af75 	bcc.w	80012b4 <main+0x554>
 80013ca:	2200      	movs	r2, #0
 80013cc:	48cb      	ldr	r0, [pc, #812]	@ (80016fc <main+0x99c>)
 80013ce:	703a      	strb	r2, [r7, #0]
 80013d0:	f44f 7100 	mov.w	r1, #512	@ 0x200
 80013d4:	f8c8 2000 	str.w	r2, [r8]
 80013d8:	f001 f99c 	bl	8002714 <HAL_GPIO_WritePin>
 80013dc:	e76a      	b.n	80012b4 <main+0x554>
 80013de:	2200      	movs	r2, #0
 80013e0:	601a      	str	r2, [r3, #0]
 80013e2:	e767      	b.n	80012b4 <main+0x554>
 80013e4:	4bc6      	ldr	r3, [pc, #792]	@ (8001700 <main+0x9a0>)
 80013e6:	781b      	ldrb	r3, [r3, #0]
 80013e8:	2b01      	cmp	r3, #1
 80013ea:	f47f ada0 	bne.w	8000f2e <main+0x1ce>
 80013ee:	4bc5      	ldr	r3, [pc, #788]	@ (8001704 <main+0x9a4>)
 80013f0:	7819      	ldrb	r1, [r3, #0]
 80013f2:	2900      	cmp	r1, #0
 80013f4:	f43f ad9b 	beq.w	8000f2e <main+0x1ce>
 80013f8:	701a      	strb	r2, [r3, #0]
 80013fa:	f000 fff3 	bl	80023e4 <HAL_GetTick>
 80013fe:	4ac2      	ldr	r2, [pc, #776]	@ (8001708 <main+0x9a8>)
 8001400:	6813      	ldr	r3, [r2, #0]
 8001402:	2b00      	cmp	r3, #0
 8001404:	f000 8173 	beq.w	80016ee <main+0x98e>
 8001408:	1ac3      	subs	r3, r0, r3
 800140a:	ee09 3a10 	vmov	s18, r3
 800140e:	eddf 7abf 	vldr	s15, [pc, #764]	@ 800170c <main+0x9ac>
 8001412:	eeb8 9a49 	vcvt.f32.u32	s18, s18
 8001416:	ee29 9a27 	vmul.f32	s18, s18, s15
 800141a:	eeb4 9ae7 	vcmpe.f32	s18, s15
 800141e:	eef1 fa10 	vmrs	APSR_nzcv, fpscr
 8001422:	f100 8167 	bmi.w	80016f4 <main+0x994>
 8001426:	eddf 7aba 	vldr	s15, [pc, #744]	@ 8001710 <main+0x9b0>
 800142a:	eeb4 9a67 	vcmp.f32	s18, s15
 800142e:	eef1 fa10 	vmrs	APSR_nzcv, fpscr
 8001432:	bfc8      	it	gt
 8001434:	eeb0 9a67 	vmovgt.f32	s18, s15
 8001438:	783b      	ldrb	r3, [r7, #0]
 800143a:	6010      	str	r0, [r2, #0]
 800143c:	2b00      	cmp	r3, #0
 800143e:	f47f ad74 	bne.w	8000f2a <main+0x1ca>
 8001442:	4bb4      	ldr	r3, [pc, #720]	@ (8001714 <main+0x9b4>)
 8001444:	781b      	ldrb	r3, [r3, #0]
 8001446:	2b00      	cmp	r3, #0
 8001448:	f43f ad71 	beq.w	8000f2e <main+0x1ce>
 800144c:	4ab2      	ldr	r2, [pc, #712]	@ (8001718 <main+0x9b8>)
 800144e:	f8df a2fc 	ldr.w	sl, [pc, #764]	@ 800174c <main+0x9ec>
 8001452:	8813      	ldrh	r3, [r2, #0]
 8001454:	eddf 7ab1 	vldr	s15, [pc, #708]	@ 800171c <main+0x9bc>
 8001458:	b29b      	uxth	r3, r3
 800145a:	f242 7110 	movw	r1, #10000	@ 0x2710
 800145e:	428b      	cmp	r3, r1
 8001460:	bf88      	it	hi
 8001462:	8011      	strhhi	r1, [r2, #0]
 8001464:	f8ba 3000 	ldrh.w	r3, [sl]
 8001468:	b29b      	uxth	r3, r3
 800146a:	ee00 3a10 	vmov	s0, r3
 800146e:	8813      	ldrh	r3, [r2, #0]
 8001470:	b29b      	uxth	r3, r3
 8001472:	ee07 3a10 	vmov	s14, r3
 8001476:	eeb8 0a40 	vcvt.f32.u32	s0, s0
 800147a:	eeb8 7a47 	vcvt.f32.u32	s14, s14
 800147e:	ee69 7a27 	vmul.f32	s15, s18, s15
 8001482:	ee37 7a40 	vsub.f32	s14, s14, s0
 8001486:	eef4 7ac7 	vcmpe.f32	s15, s14
 800148a:	eef1 fa10 	vmrs	APSR_nzcv, fpscr
 800148e:	d408      	bmi.n	80014a2 <main+0x742>
 8001490:	eef1 7a67 	vneg.f32	s15, s15
 8001494:	eeb4 7ae7 	vcmpe.f32	s14, s15
 8001498:	eef1 fa10 	vmrs	APSR_nzcv, fpscr
 800149c:	bf58      	it	pl
 800149e:	eef0 7a47 	vmovpl.f32	s15, s14
 80014a2:	ee30 0a27 	vadd.f32	s0, s0, s15
 80014a6:	f002 feaf 	bl	8004208 <lroundf>
 80014aa:	f8df b2e0 	ldr.w	fp, [pc, #736]	@ 800178c <main+0xa2c>
 80014ae:	4b9c      	ldr	r3, [pc, #624]	@ (8001720 <main+0x9c0>)
 80014b0:	eddf 7a9c 	vldr	s15, [pc, #624]	@ 8001724 <main+0x9c4>
 80014b4:	b280      	uxth	r0, r0
 80014b6:	f8aa 0000 	strh.w	r0, [sl]
 80014ba:	eddb 6a00 	vldr	s13, [fp]
 80014be:	ed93 7a00 	vldr	s14, [r3]
 80014c2:	ee69 7a27 	vmul.f32	s15, s18, s15
 80014c6:	ee37 7a66 	vsub.f32	s14, s14, s13
 80014ca:	eeb1 6a67 	vneg.f32	s12, s15
 80014ce:	eef4 7ac7 	vcmpe.f32	s15, s14
 80014d2:	eef1 fa10 	vmrs	APSR_nzcv, fpscr
 80014d6:	f140 8163 	bpl.w	80017a0 <main+0xa40>
 80014da:	eeb0 7a67 	vmov.f32	s14, s15
 80014de:	ee76 6a87 	vadd.f32	s13, s13, s14
 80014e2:	4b91      	ldr	r3, [pc, #580]	@ (8001728 <main+0x9c8>)
 80014e4:	4a91      	ldr	r2, [pc, #580]	@ (800172c <main+0x9cc>)
 80014e6:	edcb 6a00 	vstr	s13, [fp]
 80014ea:	edd3 6a00 	vldr	s13, [r3]
 80014ee:	ed92 7a00 	vldr	s14, [r2]
 80014f2:	ee37 7a66 	vsub.f32	s14, s14, s13
 80014f6:	eeb4 7ae7 	vcmpe.f32	s14, s15
 80014fa:	eef1 fa10 	vmrs	APSR_nzcv, fpscr
 80014fe:	dc08      	bgt.n	8001512 <main+0x7b2>
 8001500:	eeb4 7ac6 	vcmpe.f32	s14, s12
 8001504:	eef1 fa10 	vmrs	APSR_nzcv, fpscr
 8001508:	bf54      	ite	pl
 800150a:	eef0 7a47 	vmovpl.f32	s15, s14
 800150e:	eef0 7a46 	vmovmi.f32	s15, s12
 8001512:	ee76 6aa7 	vadd.f32	s13, s13, s15
 8001516:	4a86      	ldr	r2, [pc, #536]	@ (8001730 <main+0x9d0>)
 8001518:	edc3 6a00 	vstr	s13, [r3]
 800151c:	4b85      	ldr	r3, [pc, #532]	@ (8001734 <main+0x9d4>)
 800151e:	eddf 7a86 	vldr	s15, [pc, #536]	@ 8001738 <main+0x9d8>
 8001522:	edd3 6a00 	vldr	s13, [r3]
 8001526:	ed92 7a00 	vldr	s14, [r2]
 800152a:	ee69 7a27 	vmul.f32	s15, s18, s15
 800152e:	ee37 7a66 	vsub.f32	s14, s14, s13
 8001532:	eef4 7ac7 	vcmpe.f32	s15, s14
 8001536:	eef1 fa10 	vmrs	APSR_nzcv, fpscr
 800153a:	d408      	bmi.n	800154e <main+0x7ee>
 800153c:	eef1 7a67 	vneg.f32	s15, s15
 8001540:	eeb4 7ae7 	vcmpe.f32	s14, s15
 8001544:	eef1 fa10 	vmrs	APSR_nzcv, fpscr
 8001548:	bf58      	it	pl
 800154a:	eef0 7a47 	vmovpl.f32	s15, s14
 800154e:	ee76 6aa7 	vadd.f32	s13, s13, s15
 8001552:	edc3 6a00 	vstr	s13, [r3]
 8001556:	4b79      	ldr	r3, [pc, #484]	@ (800173c <main+0x9dc>)
 8001558:	781a      	ldrb	r2, [r3, #0]
 800155a:	2a01      	cmp	r2, #1
 800155c:	d006      	beq.n	800156c <main+0x80c>
 800155e:	781a      	ldrb	r2, [r3, #0]
 8001560:	2a03      	cmp	r2, #3
 8001562:	d003      	beq.n	800156c <main+0x80c>
 8001564:	781a      	ldrb	r2, [r3, #0]
 8001566:	2a04      	cmp	r2, #4
 8001568:	bf18      	it	ne
 800156a:	781b      	ldrbne	r3, [r3, #0]
 800156c:	ed9f 0a74 	vldr	s0, [pc, #464]	@ 8001740 <main+0x9e0>
 8001570:	4b74      	ldr	r3, [pc, #464]	@ (8001744 <main+0x9e4>)
 8001572:	ee29 0a00 	vmul.f32	s0, s18, s0
 8001576:	681c      	ldr	r4, [r3, #0]
 8001578:	f002 fe46 	bl	8004208 <lroundf>
 800157c:	4262      	negs	r2, r4
 800157e:	4282      	cmp	r2, r0
 8001580:	bfa8      	it	ge
 8001582:	4602      	movge	r2, r0
 8001584:	4b6f      	ldr	r3, [pc, #444]	@ (8001744 <main+0x9e4>)
 8001586:	4240      	negs	r0, r0
 8001588:	4282      	cmp	r2, r0
 800158a:	bfac      	ite	ge
 800158c:	18a4      	addge	r4, r4, r2
 800158e:	1824      	addlt	r4, r4, r0
 8001590:	601c      	str	r4, [r3, #0]
 8001592:	4b6d      	ldr	r3, [pc, #436]	@ (8001748 <main+0x9e8>)
 8001594:	486d      	ldr	r0, [pc, #436]	@ (800174c <main+0x9ec>)
 8001596:	781a      	ldrb	r2, [r3, #0]
 8001598:	2a00      	cmp	r2, #0
 800159a:	f040 8109 	bne.w	80017b0 <main+0xa50>
 800159e:	8802      	ldrh	r2, [r0, #0]
 80015a0:	f641 1163 	movw	r1, #6499	@ 0x1963
 80015a4:	b292      	uxth	r2, r2
 80015a6:	428a      	cmp	r2, r1
 80015a8:	d901      	bls.n	80015ae <main+0x84e>
 80015aa:	2201      	movs	r2, #1
 80015ac:	701a      	strb	r2, [r3, #0]
 80015ae:	4b68      	ldr	r3, [pc, #416]	@ (8001750 <main+0x9f0>)
 80015b0:	edd3 6a00 	vldr	s13, [r3]
 80015b4:	4b67      	ldr	r3, [pc, #412]	@ (8001754 <main+0x9f4>)
 80015b6:	ed93 4a00 	vldr	s8, [r3]
 80015ba:	4b67      	ldr	r3, [pc, #412]	@ (8001758 <main+0x9f8>)
 80015bc:	edd3 7a00 	vldr	s15, [r3]
 80015c0:	4b66      	ldr	r3, [pc, #408]	@ (800175c <main+0x9fc>)
 80015c2:	edd3 5a00 	vldr	s11, [r3]
 80015c6:	4b66      	ldr	r3, [pc, #408]	@ (8001760 <main+0xa00>)
 80015c8:	ed93 7a00 	vldr	s14, [r3]
 80015cc:	4b65      	ldr	r3, [pc, #404]	@ (8001764 <main+0xa04>)
 80015ce:	ed93 6a00 	vldr	s12, [r3]
 80015d2:	4b55      	ldr	r3, [pc, #340]	@ (8001728 <main+0x9c8>)
 80015d4:	eddb 4a00 	vldr	s9, [fp]
 80015d8:	ed93 5a00 	vldr	s10, [r3]
 80015dc:	ee77 7ae5 	vsub.f32	s15, s15, s11
 80015e0:	ee35 5a08 	vadd.f32	s10, s10, s16
 80015e4:	ee76 6ac4 	vsub.f32	s13, s13, s8
 80015e8:	ee35 5a67 	vsub.f32	s10, s10, s15
 80015ec:	ee74 4a88 	vadd.f32	s9, s9, s16
 80015f0:	eddf 7a5d 	vldr	s15, [pc, #372]	@ 8001768 <main+0xa08>
 80015f4:	ee74 4ae6 	vsub.f32	s9, s9, s13
 80015f8:	ee27 7ac7 	vnmul.f32	s14, s15, s14
 80015fc:	eef2 6a08 	vmov.f32	s13, #40	@ 0x41400000  12.0
 8001600:	eea4 7aa6 	vfma.f32	s14, s9, s13
 8001604:	ee67 7ac6 	vnmul.f32	s15, s15, s12
 8001608:	eee5 7a26 	vfma.f32	s15, s10, s13
 800160c:	eddf 6a60 	vldr	s13, [pc, #384]	@ 8001790 <main+0xa30>
 8001610:	eeb4 7ae6 	vcmpe.f32	s14, s13
 8001614:	eef1 fa10 	vmrs	APSR_nzcv, fpscr
 8001618:	f100 80d3 	bmi.w	80017c2 <main+0xa62>
 800161c:	ed9f 6a53 	vldr	s12, [pc, #332]	@ 800176c <main+0xa0c>
 8001620:	eeb4 7a46 	vcmp.f32	s14, s12
 8001624:	eef1 fa10 	vmrs	APSR_nzcv, fpscr
 8001628:	bfc8      	it	gt
 800162a:	eeb0 7a46 	vmovgt.f32	s14, s12
 800162e:	eef4 7ae6 	vcmpe.f32	s15, s13
 8001632:	eef1 fa10 	vmrs	APSR_nzcv, fpscr
 8001636:	f100 80c7 	bmi.w	80017c8 <main+0xa68>
 800163a:	eddf 6a4c 	vldr	s13, [pc, #304]	@ 800176c <main+0xa0c>
 800163e:	eef4 7a66 	vcmp.f32	s15, s13
 8001642:	eef1 fa10 	vmrs	APSR_nzcv, fpscr
 8001646:	bfc8      	it	gt
 8001648:	eef0 7a66 	vmovgt.f32	s15, s13
 800164c:	4b48      	ldr	r3, [pc, #288]	@ (8001770 <main+0xa10>)
 800164e:	ed9f 2a49 	vldr	s4, [pc, #292]	@ 8001774 <main+0xa14>
 8001652:	ed93 3a00 	vldr	s6, [r3]
 8001656:	4b37      	ldr	r3, [pc, #220]	@ (8001734 <main+0x9d4>)
 8001658:	ed93 6a00 	vldr	s12, [r3]
 800165c:	4b46      	ldr	r3, [pc, #280]	@ (8001778 <main+0xa18>)
 800165e:	ed93 4a00 	vldr	s8, [r3]
 8001662:	ee33 3a46 	vsub.f32	s6, s6, s12
 8001666:	ee64 6a08 	vmul.f32	s13, s8, s16
 800166a:	eef0 5a00 	vmov.f32	s11, #0	@ 0x40000000  2.0
 800166e:	eee3 6a25 	vfma.f32	s13, s6, s11
 8001672:	eee6 6a48 	vfms.f32	s13, s12, s16
 8001676:	eef4 6ac2 	vcmpe.f32	s13, s4
 800167a:	eef1 fa10 	vmrs	APSR_nzcv, fpscr
 800167e:	d408      	bmi.n	8001692 <main+0x932>
 8001680:	ed9f 2a3e 	vldr	s4, [pc, #248]	@ 800177c <main+0xa1c>
 8001684:	eef4 6ac2 	vcmpe.f32	s13, s4
 8001688:	eef1 fa10 	vmrs	APSR_nzcv, fpscr
 800168c:	bfd8      	it	le
 800168e:	ee36 2a88 	vaddle.f32	s4, s13, s16
 8001692:	4b3b      	ldr	r3, [pc, #236]	@ (8001780 <main+0xa20>)
 8001694:	493b      	ldr	r1, [pc, #236]	@ (8001784 <main+0xa24>)
 8001696:	edd3 2a00 	vldr	s5, [r3]
 800169a:	edd1 3a00 	vldr	s7, [r1]
 800169e:	4b29      	ldr	r3, [pc, #164]	@ (8001744 <main+0x9e4>)
 80016a0:	f8ba 2000 	ldrh.w	r2, [sl]
 80016a4:	eea3 7a88 	vfma.f32	s14, s7, s16
 80016a8:	b292      	uxth	r2, r2
 80016aa:	eee2 7a88 	vfma.f32	s15, s5, s16
 80016ae:	ee77 5a27 	vadd.f32	s11, s14, s15
 80016b2:	ee77 6ac7 	vsub.f32	s13, s15, s14
 80016b6:	ee37 6a67 	vsub.f32	s12, s14, s15
 80016ba:	eef1 7a67 	vneg.f32	s15, s15
 80016be:	ee77 7ac7 	vsub.f32	s15, s15, s14
 80016c2:	ed93 7a00 	vldr	s14, [r3]
 80016c6:	4b1d      	ldr	r3, [pc, #116]	@ (800173c <main+0x9dc>)
 80016c8:	781b      	ldrb	r3, [r3, #0]
 80016ca:	3b01      	subs	r3, #1
 80016cc:	ee75 5a82 	vadd.f32	s11, s11, s4
 80016d0:	ee76 6a82 	vadd.f32	s13, s13, s4
 80016d4:	ee36 6a42 	vsub.f32	s12, s12, s4
 80016d8:	ee77 7ac2 	vsub.f32	s15, s15, s4
 80016dc:	2b03      	cmp	r3, #3
 80016de:	f200 808b 	bhi.w	80017f8 <main+0xa98>
 80016e2:	e8df f013 	tbh	[pc, r3, lsl #1]
 80016e6:	0074      	.short	0x0074
 80016e8:	007f0103 	.word	0x007f0103
 80016ec:	00f8      	.short	0x00f8
 80016ee:	ed9f 9a26 	vldr	s18, [pc, #152]	@ 8001788 <main+0xa28>
 80016f2:	e6a1      	b.n	8001438 <main+0x6d8>
 80016f4:	eeb0 9a67 	vmov.f32	s18, s15
 80016f8:	e69e      	b.n	8001438 <main+0x6d8>
 80016fa:	bf00      	nop
 80016fc:	40020800 	.word	0x40020800
 8001700:	2000023d 	.word	0x2000023d
 8001704:	200001f0 	.word	0x200001f0
 8001708:	200000d0 	.word	0x200000d0
 800170c:	3a83126f 	.word	0x3a83126f
 8001710:	3d4ccccd 	.word	0x3d4ccccd
 8001714:	20000214 	.word	0x20000214
 8001718:	200001f2 	.word	0x200001f2
 800171c:	46c35000 	.word	0x46c35000
 8001720:	200001fc 	.word	0x200001fc
 8001724:	42a00000 	.word	0x42a00000
 8001728:	2000020c 	.word	0x2000020c
 800172c:	200001f8 	.word	0x200001f8
 8001730:	200001f4 	.word	0x200001f4
 8001734:	20000208 	.word	0x20000208
 8001738:	44160000 	.word	0x44160000
 800173c:	200001f1 	.word	0x200001f1
 8001740:	45bb8000 	.word	0x45bb8000
 8001744:	20000200 	.word	0x20000200
 8001748:	2000022c 	.word	0x2000022c
 800174c:	20000204 	.word	0x20000204
 8001750:	20000224 	.word	0x20000224
 8001754:	200001e8 	.word	0x200001e8
 8001758:	20000228 	.word	0x20000228
 800175c:	200001ec 	.word	0x200001ec
 8001760:	2000021c 	.word	0x2000021c
 8001764:	20000220 	.word	0x20000220
 8001768:	3fe66666 	.word	0x3fe66666
 800176c:	44af0000 	.word	0x44af0000
 8001770:	20000218 	.word	0x20000218
 8001774:	c3960000 	.word	0xc3960000
 8001778:	20000230 	.word	0x20000230
 800177c:	43960000 	.word	0x43960000
 8001780:	20000234 	.word	0x20000234
 8001784:	20000238 	.word	0x20000238
 8001788:	3c23d70a 	.word	0x3c23d70a
 800178c:	20000210 	.word	0x20000210
 8001790:	c4af0000 	.word	0xc4af0000
 8001794:	45af0000 	.word	0x45af0000
 8001798:	44fa0000 	.word	0x44fa0000
 800179c:	461c4000 	.word	0x461c4000
 80017a0:	eeb4 7a46 	vcmp.f32	s14, s12
 80017a4:	eef1 fa10 	vmrs	APSR_nzcv, fpscr
 80017a8:	bf48      	it	mi
 80017aa:	eeb0 7a46 	vmovmi.f32	s14, s12
 80017ae:	e696      	b.n	80014de <main+0x77e>
 80017b0:	8802      	ldrh	r2, [r0, #0]
 80017b2:	f241 7170 	movw	r1, #6000	@ 0x1770
 80017b6:	b292      	uxth	r2, r2
 80017b8:	428a      	cmp	r2, r1
 80017ba:	f63f aef8 	bhi.w	80015ae <main+0x84e>
 80017be:	2200      	movs	r2, #0
 80017c0:	e6f4      	b.n	80015ac <main+0x84c>
 80017c2:	eeb0 7a66 	vmov.f32	s14, s13
 80017c6:	e732      	b.n	800162e <main+0x8ce>
 80017c8:	ed5f 7a0f 	vldr	s15, [pc, #-60]	@ 8001790 <main+0xa30>
 80017cc:	e73e      	b.n	800164c <main+0x8ec>
 80017ce:	eeb8 7ac7 	vcvt.f32.s32	s14, s14
 80017d2:	ee36 6a07 	vadd.f32	s12, s12, s14
 80017d6:	ee77 7a87 	vadd.f32	s15, s15, s14
 80017da:	ee75 5ac7 	vsub.f32	s11, s11, s14
 80017de:	ee76 6ac7 	vsub.f32	s13, s13, s14
 80017e2:	e009      	b.n	80017f8 <main+0xa98>
 80017e4:	eeb8 7ac7 	vcvt.f32.s32	s14, s14
 80017e8:	ee36 6a47 	vsub.f32	s12, s12, s14
 80017ec:	ee77 7ac7 	vsub.f32	s15, s15, s14
 80017f0:	ee75 5a87 	vadd.f32	s11, s11, s14
 80017f4:	ee76 6a87 	vadd.f32	s13, s13, s14
 80017f8:	8803      	ldrh	r3, [r0, #0]
 80017fa:	b29b      	uxth	r3, r3
 80017fc:	f5b3 5faf 	cmp.w	r3, #5600	@ 0x15e0
 8001800:	d97d      	bls.n	80018fe <main+0xb9e>
 8001802:	f641 50af 	movw	r0, #7599	@ 0x1daf
 8001806:	4283      	cmp	r3, r0
 8001808:	d87c      	bhi.n	8001904 <main+0xba4>
 800180a:	ee07 3a10 	vmov	s14, r3
 800180e:	eeb8 2a47 	vcvt.f32.u32	s4, s14
 8001812:	ed1f 7a20 	vldr	s14, [pc, #-128]	@ 8001794 <main+0xa34>
 8001816:	ed5f 1a20 	vldr	s3, [pc, #-128]	@ 8001798 <main+0xa38>
 800181a:	ee32 2a47 	vsub.f32	s4, s4, s14
 800181e:	ee82 7a21 	vdiv.f32	s14, s4, s3
 8001822:	a806      	add	r0, sp, #24
 8001824:	2300      	movs	r3, #0
 8001826:	eee7 5a08 	vfma.f32	s11, s14, s16
 800182a:	eee7 6a08 	vfma.f32	s13, s14, s16
 800182e:	eea7 6a48 	vfms.f32	s12, s14, s16
 8001832:	eee7 7a48 	vfms.f32	s15, s14, s16
 8001836:	eee7 5a08 	vfma.f32	s11, s14, s16
 800183a:	eea7 6a08 	vfma.f32	s12, s14, s16
 800183e:	eee7 6a48 	vfms.f32	s13, s14, s16
 8001842:	eee7 7a48 	vfms.f32	s15, s14, s16
 8001846:	ee02 2a10 	vmov	s4, r2
 800184a:	ed1f 0a2c 	vldr	s0, [pc, #-176]	@ 800179c <main+0xa3c>
 800184e:	edcd 5a06 	vstr	s11, [sp, #24]
 8001852:	eeb8 2ac2 	vcvt.f32.s32	s4, s4
 8001856:	edcd 6a07 	vstr	s13, [sp, #28]
 800185a:	ed8d 6a08 	vstr	s12, [sp, #32]
 800185e:	edcd 7a09 	vstr	s15, [sp, #36]	@ 0x24
 8001862:	eeb7 7a00 	vmov.f32	s14, #112	@ 0x3f800000  1.0
 8001866:	ecf0 1a01 	vldmia	r0!, {s3}
 800186a:	eef5 1ac0 	vcmpe.f32	s3, #0.0
 800186e:	eef1 fa10 	vmrs	APSR_nzcv, fpscr
 8001872:	dd4a      	ble.n	800190a <main+0xbaa>
 8001874:	ee70 0a42 	vsub.f32	s1, s0, s4
 8001878:	ee80 1aa1 	vdiv.f32	s2, s1, s3
 800187c:	eeb4 7a41 	vcmp.f32	s14, s2
 8001880:	eef1 fa10 	vmrs	APSR_nzcv, fpscr
 8001884:	bfc8      	it	gt
 8001886:	eeb0 7a41 	vmovgt.f32	s14, s2
 800188a:	3301      	adds	r3, #1
 800188c:	2b04      	cmp	r3, #4
 800188e:	d1ea      	bne.n	8001866 <main+0xb06>
 8001890:	eeb4 7ae8 	vcmpe.f32	s14, s17
 8001894:	eef1 fa10 	vmrs	APSR_nzcv, fpscr
 8001898:	4bb0      	ldr	r3, [pc, #704]	@ (8001b5c <main+0xdfc>)
 800189a:	dc45      	bgt.n	8001928 <main+0xbc8>
 800189c:	eeb5 7ac0 	vcmpe.f32	s14, #0.0
 80018a0:	eef1 fa10 	vmrs	APSR_nzcv, fpscr
 80018a4:	f140 80d7 	bpl.w	8001a56 <main+0xcf6>
 80018a8:	ed9f 7aad 	vldr	s14, [pc, #692]	@ 8001b60 <main+0xe00>
 80018ac:	781b      	ldrb	r3, [r3, #0]
 80018ae:	2b00      	cmp	r3, #0
 80018b0:	d17a      	bne.n	80019a8 <main+0xc48>
 80018b2:	eddf 4aac 	vldr	s9, [pc, #688]	@ 8001b64 <main+0xe04>
 80018b6:	4bac      	ldr	r3, [pc, #688]	@ (8001b68 <main+0xe08>)
 80018b8:	eeb0 5a68 	vmov.f32	s10, s17
 80018bc:	eea9 5a64 	vfms.f32	s10, s18, s9
 80018c0:	ee63 3a85 	vmul.f32	s7, s7, s10
 80018c4:	ee62 2a85 	vmul.f32	s5, s5, s10
 80018c8:	ee24 4a05 	vmul.f32	s8, s8, s10
 80018cc:	edc1 3a00 	vstr	s7, [r1]
 80018d0:	edc3 2a00 	vstr	s5, [r3]
 80018d4:	e065      	b.n	80019a2 <main+0xc42>
 80018d6:	eeb8 7ac7 	vcvt.f32.s32	s14, s14
 80018da:	ee77 7a87 	vadd.f32	s15, s15, s14
 80018de:	ee76 6a87 	vadd.f32	s13, s13, s14
 80018e2:	ee36 6a47 	vsub.f32	s12, s12, s14
 80018e6:	ee75 5ac7 	vsub.f32	s11, s11, s14
 80018ea:	e785      	b.n	80017f8 <main+0xa98>
 80018ec:	eeb8 7ac7 	vcvt.f32.s32	s14, s14
 80018f0:	ee36 6a07 	vadd.f32	s12, s12, s14
 80018f4:	ee75 5a87 	vadd.f32	s11, s11, s14
 80018f8:	ee77 7ac7 	vsub.f32	s15, s15, s14
 80018fc:	e76f      	b.n	80017de <main+0xa7e>
 80018fe:	ed9f 7a98 	vldr	s14, [pc, #608]	@ 8001b60 <main+0xe00>
 8001902:	e78e      	b.n	8001822 <main+0xac2>
 8001904:	eeb7 7a00 	vmov.f32	s14, #112	@ 0x3f800000  1.0
 8001908:	e78b      	b.n	8001822 <main+0xac2>
 800190a:	d5be      	bpl.n	800188a <main+0xb2a>
 800190c:	ed9f 1a97 	vldr	s2, [pc, #604]	@ 8001b6c <main+0xe0c>
 8001910:	ee31 1a42 	vsub.f32	s2, s2, s4
 8001914:	eec1 0a21 	vdiv.f32	s1, s2, s3
 8001918:	eeb4 7a60 	vcmp.f32	s14, s1
 800191c:	eef1 fa10 	vmrs	APSR_nzcv, fpscr
 8001920:	bfc8      	it	gt
 8001922:	eeb0 7a60 	vmovgt.f32	s14, s1
 8001926:	e7b0      	b.n	800188a <main+0xb2a>
 8001928:	eeb7 7a00 	vmov.f32	s14, #112	@ 0x3f800000  1.0
 800192c:	781a      	ldrb	r2, [r3, #0]
 800192e:	2a00      	cmp	r2, #0
 8001930:	d0bc      	beq.n	80018ac <main+0xb4c>
 8001932:	eee9 3a24 	vfma.f32	s7, s18, s9
 8001936:	eee9 2a05 	vfma.f32	s5, s18, s10
 800193a:	ed9f 5a8d 	vldr	s10, [pc, #564]	@ 8001b70 <main+0xe10>
 800193e:	eef4 3ac5 	vcmpe.f32	s7, s10
 8001942:	eef1 fa10 	vmrs	APSR_nzcv, fpscr
 8001946:	eea9 4a03 	vfma.f32	s8, s18, s6
 800194a:	f100 808d 	bmi.w	8001a68 <main+0xd08>
 800194e:	eddf 4a89 	vldr	s9, [pc, #548]	@ 8001b74 <main+0xe14>
 8001952:	eef4 3a64 	vcmp.f32	s7, s9
 8001956:	eef1 fa10 	vmrs	APSR_nzcv, fpscr
 800195a:	bfc8      	it	gt
 800195c:	eef0 3a64 	vmovgt.f32	s7, s9
 8001960:	eef4 2ac5 	vcmpe.f32	s5, s10
 8001964:	eef1 fa10 	vmrs	APSR_nzcv, fpscr
 8001968:	edc1 3a00 	vstr	s7, [r1]
 800196c:	d47f      	bmi.n	8001a6e <main+0xd0e>
 800196e:	eddf 4a81 	vldr	s9, [pc, #516]	@ 8001b74 <main+0xe14>
 8001972:	eef4 2a64 	vcmp.f32	s5, s9
 8001976:	eef1 fa10 	vmrs	APSR_nzcv, fpscr
 800197a:	bfc8      	it	gt
 800197c:	eef0 2a64 	vmovgt.f32	s5, s9
 8001980:	4b79      	ldr	r3, [pc, #484]	@ (8001b68 <main+0xe08>)
 8001982:	eeb4 4ac5 	vcmpe.f32	s8, s10
 8001986:	eef1 fa10 	vmrs	APSR_nzcv, fpscr
 800198a:	edc3 2a00 	vstr	s5, [r3]
 800198e:	d471      	bmi.n	8001a74 <main+0xd14>
 8001990:	ed9f 5a78 	vldr	s10, [pc, #480]	@ 8001b74 <main+0xe14>
 8001994:	eeb4 4a45 	vcmp.f32	s8, s10
 8001998:	eef1 fa10 	vmrs	APSR_nzcv, fpscr
 800199c:	bfc8      	it	gt
 800199e:	eeb0 4a45 	vmovgt.f32	s8, s10
 80019a2:	4b75      	ldr	r3, [pc, #468]	@ (8001b78 <main+0xe18>)
 80019a4:	ed83 4a00 	vstr	s8, [r3]
 80019a8:	eeb0 0a42 	vmov.f32	s0, s4
 80019ac:	eea7 0a25 	vfma.f32	s0, s14, s11
 80019b0:	eeb0 aa42 	vmov.f32	s20, s4
 80019b4:	eea7 aa26 	vfma.f32	s20, s14, s13
 80019b8:	eef0 9a42 	vmov.f32	s19, s4
 80019bc:	eea7 2a27 	vfma.f32	s4, s14, s15
 80019c0:	eee7 9a06 	vfma.f32	s19, s14, s12
 80019c4:	ee30 0a08 	vadd.f32	s0, s0, s16
 80019c8:	eeb0 9a42 	vmov.f32	s18, s4
 80019cc:	ee3a aa08 	vadd.f32	s20, s20, s16
 80019d0:	f002 fc1a 	bl	8004208 <lroundf>
 80019d4:	eeb0 0a4a 	vmov.f32	s0, s20
 80019d8:	4683      	mov	fp, r0
 80019da:	ee79 9a88 	vadd.f32	s19, s19, s16
 80019de:	f002 fc13 	bl	8004208 <lroundf>
 80019e2:	eeb0 0a69 	vmov.f32	s0, s19
 80019e6:	4682      	mov	sl, r0
 80019e8:	f002 fc0e 	bl	8004208 <lroundf>
 80019ec:	ee39 0a08 	vadd.f32	s0, s18, s16
 80019f0:	4604      	mov	r4, r0
 80019f2:	f002 fc09 	bl	8004208 <lroundf>
 80019f6:	f5bb 7ffa 	cmp.w	fp, #500	@ 0x1f4
 80019fa:	4602      	mov	r2, r0
 80019fc:	db3d      	blt.n	8001a7a <main+0xd1a>
 80019fe:	f242 7310 	movw	r3, #10000	@ 0x2710
 8001a02:	459b      	cmp	fp, r3
 8001a04:	dc01      	bgt.n	8001a0a <main+0xcaa>
 8001a06:	fa1f f38b 	uxth.w	r3, fp
 8001a0a:	f5ba 7ffa 	cmp.w	sl, #500	@ 0x1f4
 8001a0e:	f8ad 301a 	strh.w	r3, [sp, #26]
 8001a12:	db35      	blt.n	8001a80 <main+0xd20>
 8001a14:	f242 7310 	movw	r3, #10000	@ 0x2710
 8001a18:	459a      	cmp	sl, r3
 8001a1a:	dc01      	bgt.n	8001a20 <main+0xcc0>
 8001a1c:	fa1f f38a 	uxth.w	r3, sl
 8001a20:	f5b4 7ffa 	cmp.w	r4, #500	@ 0x1f4
 8001a24:	f8ad 301c 	strh.w	r3, [sp, #28]
 8001a28:	db2d      	blt.n	8001a86 <main+0xd26>
 8001a2a:	f242 7310 	movw	r3, #10000	@ 0x2710
 8001a2e:	429c      	cmp	r4, r3
 8001a30:	dc00      	bgt.n	8001a34 <main+0xcd4>
 8001a32:	b2a3      	uxth	r3, r4
 8001a34:	f5b2 7ffa 	cmp.w	r2, #500	@ 0x1f4
 8001a38:	f8ad 3018 	strh.w	r3, [sp, #24]
 8001a3c:	db26      	blt.n	8001a8c <main+0xd2c>
 8001a3e:	f242 7010 	movw	r0, #10000	@ 0x2710
 8001a42:	4282      	cmp	r2, r0
 8001a44:	dc00      	bgt.n	8001a48 <main+0xce8>
 8001a46:	b290      	uxth	r0, r2
 8001a48:	f8ad 001e 	strh.w	r0, [sp, #30]
 8001a4c:	a806      	add	r0, sp, #24
 8001a4e:	f7ff f843 	bl	8000ad8 <SetPwm>
 8001a52:	f7ff ba6c 	b.w	8000f2e <main+0x1ce>
 8001a56:	eddf 1a49 	vldr	s3, [pc, #292]	@ 8001b7c <main+0xe1c>
 8001a5a:	eeb4 7ae1 	vcmpe.f32	s14, s3
 8001a5e:	eef1 fa10 	vmrs	APSR_nzcv, fpscr
 8001a62:	f53f af23 	bmi.w	80018ac <main+0xb4c>
 8001a66:	e761      	b.n	800192c <main+0xbcc>
 8001a68:	eef0 3a45 	vmov.f32	s7, s10
 8001a6c:	e778      	b.n	8001960 <main+0xc00>
 8001a6e:	eddf 2a40 	vldr	s5, [pc, #256]	@ 8001b70 <main+0xe10>
 8001a72:	e785      	b.n	8001980 <main+0xc20>
 8001a74:	ed9f 4a3e 	vldr	s8, [pc, #248]	@ 8001b70 <main+0xe10>
 8001a78:	e793      	b.n	80019a2 <main+0xc42>
 8001a7a:	f44f 73fa 	mov.w	r3, #500	@ 0x1f4
 8001a7e:	e7c4      	b.n	8001a0a <main+0xcaa>
 8001a80:	f44f 73fa 	mov.w	r3, #500	@ 0x1f4
 8001a84:	e7cc      	b.n	8001a20 <main+0xcc0>
 8001a86:	f44f 73fa 	mov.w	r3, #500	@ 0x1f4
 8001a8a:	e7d3      	b.n	8001a34 <main+0xcd4>
 8001a8c:	f44f 70fa 	mov.w	r0, #500	@ 0x1f4
 8001a90:	e7da      	b.n	8001a48 <main+0xce8>
 8001a92:	2340      	movs	r3, #64	@ 0x40
 8001a94:	e9cd 1300 	strd	r1, r3, [sp]
 8001a98:	2300      	movs	r3, #0
 8001a9a:	461a      	mov	r2, r3
 8001a9c:	2181      	movs	r1, #129	@ 0x81
 8001a9e:	2000      	movs	r0, #0
 8001aa0:	f000 fa92 	bl	8001fc8 <Protocol_BuildFrame>
 8001aa4:	b130      	cbz	r0, 8001ab4 <main+0xd54>
 8001aa6:	f04f 33ff 	mov.w	r3, #4294967295
 8001aaa:	4602      	mov	r2, r0
 8001aac:	4834      	ldr	r0, [pc, #208]	@ (8001b80 <main+0xe20>)
 8001aae:	a906      	add	r1, sp, #24
 8001ab0:	f002 f827 	bl	8003b02 <HAL_UART_Transmit>
 8001ab4:	8822      	ldrh	r2, [r4, #0]
 8001ab6:	f8bb 3000 	ldrh.w	r3, [fp]
 8001aba:	b292      	uxth	r2, r2
 8001abc:	b29b      	uxth	r3, r3
 8001abe:	429a      	cmp	r2, r3
 8001ac0:	f000 8160 	beq.w	8001d84 <main+0x1024>
 8001ac4:	8823      	ldrh	r3, [r4, #0]
 8001ac6:	b29b      	uxth	r3, r3
 8001ac8:	f81a 0003 	ldrb.w	r0, [sl, r3]
 8001acc:	8823      	ldrh	r3, [r4, #0]
 8001ace:	3301      	adds	r3, #1
 8001ad0:	b2db      	uxtb	r3, r3
 8001ad2:	8023      	strh	r3, [r4, #0]
 8001ad4:	f000 f9f2 	bl	8001ebc <Protocol_PushByte>
 8001ad8:	2801      	cmp	r0, #1
 8001ada:	f040 8143 	bne.w	8001d64 <main+0x1004>
 8001ade:	f000 fa69 	bl	8001fb4 <Protocol_GetFrame>
 8001ae2:	7883      	ldrb	r3, [r0, #2]
 8001ae4:	2b01      	cmp	r3, #1
 8001ae6:	4602      	mov	r2, r0
 8001ae8:	a906      	add	r1, sp, #24
 8001aea:	d0d2      	beq.n	8001a92 <main+0xd32>
 8001aec:	3b10      	subs	r3, #16
 8001aee:	b2d8      	uxtb	r0, r3
 8001af0:	2810      	cmp	r0, #16
 8001af2:	f200 8134 	bhi.w	8001d5e <main+0xffe>
 8001af6:	2b10      	cmp	r3, #16
 8001af8:	f200 8131 	bhi.w	8001d5e <main+0xffe>
 8001afc:	e8df f013 	tbh	[pc, r3, lsl #1]
 8001b00:	00260011 	.word	0x00260011
 8001b04:	00bf0089 	.word	0x00bf0089
 8001b08:	012f00db 	.word	0x012f00db
 8001b0c:	012f012f 	.word	0x012f012f
 8001b10:	012f012f 	.word	0x012f012f
 8001b14:	012f012f 	.word	0x012f012f
 8001b18:	012f012f 	.word	0x012f012f
 8001b1c:	012f012f 	.word	0x012f012f
 8001b20:	0075      	.short	0x0075
 8001b22:	6833      	ldr	r3, [r6, #0]
 8001b24:	6b5a      	ldr	r2, [r3, #52]	@ 0x34
 8001b26:	f8ad 2010 	strh.w	r2, [sp, #16]
 8001b2a:	6b9a      	ldr	r2, [r3, #56]	@ 0x38
 8001b2c:	f8ad 2012 	strh.w	r2, [sp, #18]
 8001b30:	6bda      	ldr	r2, [r3, #60]	@ 0x3c
 8001b32:	6c1b      	ldr	r3, [r3, #64]	@ 0x40
 8001b34:	f8ad 3016 	strh.w	r3, [sp, #22]
 8001b38:	2340      	movs	r3, #64	@ 0x40
 8001b3a:	9301      	str	r3, [sp, #4]
 8001b3c:	ab06      	add	r3, sp, #24
 8001b3e:	f8ad 2014 	strh.w	r2, [sp, #20]
 8001b42:	9300      	str	r3, [sp, #0]
 8001b44:	aa04      	add	r2, sp, #16
 8001b46:	2308      	movs	r3, #8
 8001b48:	2190      	movs	r1, #144	@ 0x90
 8001b4a:	e7a8      	b.n	8001a9e <main+0xd3e>
 8001b4c:	78d3      	ldrb	r3, [r2, #3]
 8001b4e:	2b08      	cmp	r3, #8
 8001b50:	d018      	beq.n	8001b84 <main+0xe24>
 8001b52:	2240      	movs	r2, #64	@ 0x40
 8001b54:	2005      	movs	r0, #5
 8001b56:	f000 fa6d 	bl	8002034 <Protocol_BuildStatusFrame>
 8001b5a:	e7a3      	b.n	8001aa4 <main+0xd44>
 8001b5c:	2000022c 	.word	0x2000022c
 8001b60:	00000000 	.word	0x00000000
 8001b64:	3f4ccccd 	.word	0x3f4ccccd
 8001b68:	20000234 	.word	0x20000234
 8001b6c:	43fa0000 	.word	0x43fa0000
 8001b70:	c3480000 	.word	0xc3480000
 8001b74:	43480000 	.word	0x43480000
 8001b78:	20000230 	.word	0x20000230
 8001b7c:	3f7fbe77 	.word	0x3f7fbe77
 8001b80:	20000340 	.word	0x20000340
 8001b84:	6850      	ldr	r0, [r2, #4]
 8001b86:	6891      	ldr	r1, [r2, #8]
 8001b88:	ab04      	add	r3, sp, #16
 8001b8a:	c303      	stmia	r3!, {r0, r1}
 8001b8c:	4b80      	ldr	r3, [pc, #512]	@ (8001d90 <main+0x1030>)
 8001b8e:	2100      	movs	r1, #0
 8001b90:	7019      	strb	r1, [r3, #0]
 8001b92:	4b80      	ldr	r3, [pc, #512]	@ (8001d94 <main+0x1034>)
 8001b94:	ed83 8a00 	vstr	s16, [r3]
 8001b98:	4b7f      	ldr	r3, [pc, #508]	@ (8001d98 <main+0x1038>)
 8001b9a:	ed83 8a00 	vstr	s16, [r3]
 8001b9e:	4b7f      	ldr	r3, [pc, #508]	@ (8001d9c <main+0x103c>)
 8001ba0:	ed83 8a00 	vstr	s16, [r3]
 8001ba4:	4b7e      	ldr	r3, [pc, #504]	@ (8001da0 <main+0x1040>)
 8001ba6:	ed83 8a00 	vstr	s16, [r3]
 8001baa:	4b7e      	ldr	r3, [pc, #504]	@ (8001da4 <main+0x1044>)
 8001bac:	ed83 8a00 	vstr	s16, [r3]
 8001bb0:	4b7d      	ldr	r3, [pc, #500]	@ (8001da8 <main+0x1048>)
 8001bb2:	ed83 8a00 	vstr	s16, [r3]
 8001bb6:	4b7d      	ldr	r3, [pc, #500]	@ (8001dac <main+0x104c>)
 8001bb8:	7019      	strb	r1, [r3, #0]
 8001bba:	4b7d      	ldr	r3, [pc, #500]	@ (8001db0 <main+0x1050>)
 8001bbc:	6019      	str	r1, [r3, #0]
 8001bbe:	4b7d      	ldr	r3, [pc, #500]	@ (8001db4 <main+0x1054>)
 8001bc0:	ed83 8a00 	vstr	s16, [r3]
 8001bc4:	4b7c      	ldr	r3, [pc, #496]	@ (8001db8 <main+0x1058>)
 8001bc6:	ed83 8a00 	vstr	s16, [r3]
 8001bca:	4b7c      	ldr	r3, [pc, #496]	@ (8001dbc <main+0x105c>)
 8001bcc:	ed83 8a00 	vstr	s16, [r3]
 8001bd0:	4b7b      	ldr	r3, [pc, #492]	@ (8001dc0 <main+0x1060>)
 8001bd2:	a804      	add	r0, sp, #16
 8001bd4:	7019      	strb	r1, [r3, #0]
 8001bd6:	f7fe ff7f 	bl	8000ad8 <SetPwm>
 8001bda:	2340      	movs	r3, #64	@ 0x40
 8001bdc:	9301      	str	r3, [sp, #4]
 8001bde:	ab06      	add	r3, sp, #24
 8001be0:	9300      	str	r3, [sp, #0]
 8001be2:	460a      	mov	r2, r1
 8001be4:	460b      	mov	r3, r1
 8001be6:	2191      	movs	r1, #145	@ 0x91
 8001be8:	e759      	b.n	8001a9e <main+0xd3e>
 8001bea:	4b76      	ldr	r3, [pc, #472]	@ (8001dc4 <main+0x1064>)
 8001bec:	781b      	ldrb	r3, [r3, #0]
 8001bee:	b913      	cbnz	r3, 8001bf6 <main+0xe96>
 8001bf0:	2240      	movs	r2, #64	@ 0x40
 8001bf2:	2007      	movs	r0, #7
 8001bf4:	e7af      	b.n	8001b56 <main+0xdf6>
 8001bf6:	4b74      	ldr	r3, [pc, #464]	@ (8001dc8 <main+0x1068>)
 8001bf8:	6818      	ldr	r0, [r3, #0]
 8001bfa:	889b      	ldrh	r3, [r3, #4]
 8001bfc:	f8ad 3014 	strh.w	r3, [sp, #20]
 8001c00:	2340      	movs	r3, #64	@ 0x40
 8001c02:	9301      	str	r3, [sp, #4]
 8001c04:	ab06      	add	r3, sp, #24
 8001c06:	9300      	str	r3, [sp, #0]
 8001c08:	9004      	str	r0, [sp, #16]
 8001c0a:	2306      	movs	r3, #6
 8001c0c:	aa04      	add	r2, sp, #16
 8001c0e:	21a0      	movs	r1, #160	@ 0xa0
 8001c10:	e745      	b.n	8001a9e <main+0xd3e>
 8001c12:	78d3      	ldrb	r3, [r2, #3]
 8001c14:	2b02      	cmp	r3, #2
 8001c16:	d19c      	bne.n	8001b52 <main+0xdf2>
 8001c18:	8892      	ldrh	r2, [r2, #4]
 8001c1a:	f242 7310 	movw	r3, #10000	@ 0x2710
 8001c1e:	429a      	cmp	r2, r3
 8001c20:	bf8c      	ite	hi
 8001c22:	f8ad 3010 	strhhi.w	r3, [sp, #16]
 8001c26:	f8ad 2010 	strhls.w	r2, [sp, #16]
 8001c2a:	4b68      	ldr	r3, [pc, #416]	@ (8001dcc <main+0x106c>)
 8001c2c:	f8bd 2010 	ldrh.w	r2, [sp, #16]
 8001c30:	801a      	strh	r2, [r3, #0]
 8001c32:	4a57      	ldr	r2, [pc, #348]	@ (8001d90 <main+0x1030>)
 8001c34:	2301      	movs	r3, #1
 8001c36:	7013      	strb	r3, [r2, #0]
 8001c38:	f889 3000 	strb.w	r3, [r9]
 8001c3c:	4b55      	ldr	r3, [pc, #340]	@ (8001d94 <main+0x1034>)
 8001c3e:	ed83 8a00 	vstr	s16, [r3]
 8001c42:	4b55      	ldr	r3, [pc, #340]	@ (8001d98 <main+0x1038>)
 8001c44:	ed83 8a00 	vstr	s16, [r3]
 8001c48:	4b54      	ldr	r3, [pc, #336]	@ (8001d9c <main+0x103c>)
 8001c4a:	ed83 8a00 	vstr	s16, [r3]
 8001c4e:	4b57      	ldr	r3, [pc, #348]	@ (8001dac <main+0x104c>)
 8001c50:	2000      	movs	r0, #0
 8001c52:	7018      	strb	r0, [r3, #0]
 8001c54:	4b56      	ldr	r3, [pc, #344]	@ (8001db0 <main+0x1050>)
 8001c56:	6018      	str	r0, [r3, #0]
 8001c58:	4b56      	ldr	r3, [pc, #344]	@ (8001db4 <main+0x1054>)
 8001c5a:	ed83 8a00 	vstr	s16, [r3]
 8001c5e:	4b56      	ldr	r3, [pc, #344]	@ (8001db8 <main+0x1058>)
 8001c60:	ed83 8a00 	vstr	s16, [r3]
 8001c64:	4b55      	ldr	r3, [pc, #340]	@ (8001dbc <main+0x105c>)
 8001c66:	ed83 8a00 	vstr	s16, [r3]
 8001c6a:	4b55      	ldr	r3, [pc, #340]	@ (8001dc0 <main+0x1060>)
 8001c6c:	7018      	strb	r0, [r3, #0]
 8001c6e:	2340      	movs	r3, #64	@ 0x40
 8001c70:	9301      	str	r3, [sp, #4]
 8001c72:	ab06      	add	r3, sp, #24
 8001c74:	9300      	str	r3, [sp, #0]
 8001c76:	aa04      	add	r2, sp, #16
 8001c78:	2302      	movs	r3, #2
 8001c7a:	2192      	movs	r1, #146	@ 0x92
 8001c7c:	e710      	b.n	8001aa0 <main+0xd40>
 8001c7e:	4b44      	ldr	r3, [pc, #272]	@ (8001d90 <main+0x1030>)
 8001c80:	2100      	movs	r1, #0
 8001c82:	7019      	strb	r1, [r3, #0]
 8001c84:	4b49      	ldr	r3, [pc, #292]	@ (8001dac <main+0x104c>)
 8001c86:	7019      	strb	r1, [r3, #0]
 8001c88:	4b49      	ldr	r3, [pc, #292]	@ (8001db0 <main+0x1050>)
 8001c8a:	6019      	str	r1, [r3, #0]
 8001c8c:	4b49      	ldr	r3, [pc, #292]	@ (8001db4 <main+0x1054>)
 8001c8e:	ed83 8a00 	vstr	s16, [r3]
 8001c92:	4b49      	ldr	r3, [pc, #292]	@ (8001db8 <main+0x1058>)
 8001c94:	ed83 8a00 	vstr	s16, [r3]
 8001c98:	4b48      	ldr	r3, [pc, #288]	@ (8001dbc <main+0x105c>)
 8001c9a:	ed83 8a00 	vstr	s16, [r3]
 8001c9e:	4b48      	ldr	r3, [pc, #288]	@ (8001dc0 <main+0x1060>)
 8001ca0:	7019      	strb	r1, [r3, #0]
 8001ca2:	f7fe ff0f 	bl	8000ac4 <PWM_SetSafe>
 8001ca6:	2340      	movs	r3, #64	@ 0x40
 8001ca8:	9301      	str	r3, [sp, #4]
 8001caa:	ab06      	add	r3, sp, #24
 8001cac:	9300      	str	r3, [sp, #0]
 8001cae:	460a      	mov	r2, r1
 8001cb0:	460b      	mov	r3, r1
 8001cb2:	2193      	movs	r1, #147	@ 0x93
 8001cb4:	e6f3      	b.n	8001a9e <main+0xd3e>
 8001cb6:	78d3      	ldrb	r3, [r2, #3]
 8001cb8:	2b03      	cmp	r3, #3
 8001cba:	f47f af4a 	bne.w	8001b52 <main+0xdf2>
 8001cbe:	8891      	ldrh	r1, [r2, #4]
 8001cc0:	7993      	ldrb	r3, [r2, #6]
 8001cc2:	f8ad 1010 	strh.w	r1, [sp, #16]
 8001cc6:	f8bd 2010 	ldrh.w	r2, [sp, #16]
 8001cca:	f88d 3012 	strb.w	r3, [sp, #18]
 8001cce:	f242 7310 	movw	r3, #10000	@ 0x2710
 8001cd2:	429a      	cmp	r2, r3
 8001cd4:	bf88      	it	hi
 8001cd6:	f8ad 3010 	strhhi.w	r3, [sp, #16]
 8001cda:	4b3c      	ldr	r3, [pc, #240]	@ (8001dcc <main+0x106c>)
 8001cdc:	f8bd 2010 	ldrh.w	r2, [sp, #16]
 8001ce0:	801a      	strh	r2, [r3, #0]
 8001ce2:	4a2b      	ldr	r2, [pc, #172]	@ (8001d90 <main+0x1030>)
 8001ce4:	4932      	ldr	r1, [pc, #200]	@ (8001db0 <main+0x1050>)
 8001ce6:	482c      	ldr	r0, [pc, #176]	@ (8001d98 <main+0x1038>)
 8001ce8:	2301      	movs	r3, #1
 8001cea:	7013      	strb	r3, [r2, #0]
 8001cec:	4a2f      	ldr	r2, [pc, #188]	@ (8001dac <main+0x104c>)
 8001cee:	f889 3000 	strb.w	r3, [r9]
 8001cf2:	f89d 3012 	ldrb.w	r3, [sp, #18]
 8001cf6:	7013      	strb	r3, [r2, #0]
 8001cf8:	2200      	movs	r2, #0
 8001cfa:	600a      	str	r2, [r1, #0]
 8001cfc:	492d      	ldr	r1, [pc, #180]	@ (8001db4 <main+0x1054>)
 8001cfe:	ed81 8a00 	vstr	s16, [r1]
 8001d02:	492d      	ldr	r1, [pc, #180]	@ (8001db8 <main+0x1058>)
 8001d04:	ed81 8a00 	vstr	s16, [r1]
 8001d08:	492c      	ldr	r1, [pc, #176]	@ (8001dbc <main+0x105c>)
 8001d0a:	ed81 8a00 	vstr	s16, [r1]
 8001d0e:	492c      	ldr	r1, [pc, #176]	@ (8001dc0 <main+0x1060>)
 8001d10:	700a      	strb	r2, [r1, #0]
 8001d12:	4920      	ldr	r1, [pc, #128]	@ (8001d94 <main+0x1034>)
 8001d14:	4a21      	ldr	r2, [pc, #132]	@ (8001d9c <main+0x103c>)
 8001d16:	ed81 8a00 	vstr	s16, [r1]
 8001d1a:	3b01      	subs	r3, #1
 8001d1c:	ed80 8a00 	vstr	s16, [r0]
 8001d20:	ed82 8a00 	vstr	s16, [r2]
 8001d24:	2b05      	cmp	r3, #5
 8001d26:	d806      	bhi.n	8001d36 <main+0xfd6>
 8001d28:	e8df f003 	tbb	[pc, r3]
 8001d2c:	0f0d1203 	.word	0x0f0d1203
 8001d30:	1417      	.short	0x1417
 8001d32:	4b27      	ldr	r3, [pc, #156]	@ (8001dd0 <main+0x1070>)
 8001d34:	6003      	str	r3, [r0, #0]
 8001d36:	2340      	movs	r3, #64	@ 0x40
 8001d38:	9301      	str	r3, [sp, #4]
 8001d3a:	ab06      	add	r3, sp, #24
 8001d3c:	9300      	str	r3, [sp, #0]
 8001d3e:	aa04      	add	r2, sp, #16
 8001d40:	2303      	movs	r3, #3
 8001d42:	2194      	movs	r1, #148	@ 0x94
 8001d44:	e6ab      	b.n	8001a9e <main+0xd3e>
 8001d46:	4b23      	ldr	r3, [pc, #140]	@ (8001dd4 <main+0x1074>)
 8001d48:	e7f4      	b.n	8001d34 <main+0xfd4>
 8001d4a:	4b21      	ldr	r3, [pc, #132]	@ (8001dd0 <main+0x1070>)
 8001d4c:	600b      	str	r3, [r1, #0]
 8001d4e:	e7f2      	b.n	8001d36 <main+0xfd6>
 8001d50:	4b20      	ldr	r3, [pc, #128]	@ (8001dd4 <main+0x1074>)
 8001d52:	e7fb      	b.n	8001d4c <main+0xfec>
 8001d54:	4b20      	ldr	r3, [pc, #128]	@ (8001dd8 <main+0x1078>)
 8001d56:	6013      	str	r3, [r2, #0]
 8001d58:	e7ed      	b.n	8001d36 <main+0xfd6>
 8001d5a:	4b20      	ldr	r3, [pc, #128]	@ (8001ddc <main+0x107c>)
 8001d5c:	e7fb      	b.n	8001d56 <main+0xff6>
 8001d5e:	2240      	movs	r2, #64	@ 0x40
 8001d60:	2006      	movs	r0, #6
 8001d62:	e6f8      	b.n	8001b56 <main+0xdf6>
 8001d64:	2802      	cmp	r0, #2
 8001d66:	f47f aea5 	bne.w	8001ab4 <main+0xd54>
 8001d6a:	f000 f927 	bl	8001fbc <Protocol_GetLastError>
 8001d6e:	2210      	movs	r2, #16
 8001d70:	a906      	add	r1, sp, #24
 8001d72:	f000 f95f 	bl	8002034 <Protocol_BuildStatusFrame>
 8001d76:	4602      	mov	r2, r0
 8001d78:	2800      	cmp	r0, #0
 8001d7a:	f43f ae9b 	beq.w	8001ab4 <main+0xd54>
 8001d7e:	f04f 33ff 	mov.w	r3, #4294967295
 8001d82:	e693      	b.n	8001aac <main+0xd4c>
 8001d84:	2001      	movs	r0, #1
 8001d86:	f000 fb33 	bl	80023f0 <HAL_Delay>
 8001d8a:	f7ff b8af 	b.w	8000eec <main+0x18c>
 8001d8e:	bf00      	nop
 8001d90:	2000023d 	.word	0x2000023d
 8001d94:	200001fc 	.word	0x200001fc
 8001d98:	200001f8 	.word	0x200001f8
 8001d9c:	200001f4 	.word	0x200001f4
 8001da0:	20000210 	.word	0x20000210
 8001da4:	2000020c 	.word	0x2000020c
 8001da8:	20000208 	.word	0x20000208
 8001dac:	200001f1 	.word	0x200001f1
 8001db0:	20000200 	.word	0x20000200
 8001db4:	20000238 	.word	0x20000238
 8001db8:	20000234 	.word	0x20000234
 8001dbc:	20000230 	.word	0x20000230
 8001dc0:	2000022c 	.word	0x2000022c
 8001dc4:	20000258 	.word	0x20000258
 8001dc8:	2000025a 	.word	0x2000025a
 8001dcc:	200001f2 	.word	0x200001f2
 8001dd0:	c1200000 	.word	0xc1200000
 8001dd4:	41200000 	.word	0x41200000
 8001dd8:	c2f00000 	.word	0xc2f00000
 8001ddc:	42f00000 	.word	0x42f00000

08001de0 <HAL_UART_RxCpltCallback>:
 8001de0:	4b0e      	ldr	r3, [pc, #56]	@ (8001e1c <HAL_UART_RxCpltCallback+0x3c>)
 8001de2:	4283      	cmp	r3, r0
 8001de4:	b410      	push	{r4}
 8001de6:	d116      	bne.n	8001e16 <HAL_UART_RxCpltCallback+0x36>
 8001de8:	4a0d      	ldr	r2, [pc, #52]	@ (8001e20 <HAL_UART_RxCpltCallback+0x40>)
 8001dea:	490e      	ldr	r1, [pc, #56]	@ (8001e24 <HAL_UART_RxCpltCallback+0x44>)
 8001dec:	8813      	ldrh	r3, [r2, #0]
 8001dee:	8809      	ldrh	r1, [r1, #0]
 8001df0:	3301      	adds	r3, #1
 8001df2:	b2db      	uxtb	r3, r3
 8001df4:	b289      	uxth	r1, r1
 8001df6:	428b      	cmp	r3, r1
 8001df8:	d006      	beq.n	8001e08 <HAL_UART_RxCpltCallback+0x28>
 8001dfa:	490b      	ldr	r1, [pc, #44]	@ (8001e28 <HAL_UART_RxCpltCallback+0x48>)
 8001dfc:	480b      	ldr	r0, [pc, #44]	@ (8001e2c <HAL_UART_RxCpltCallback+0x4c>)
 8001dfe:	780c      	ldrb	r4, [r1, #0]
 8001e00:	8811      	ldrh	r1, [r2, #0]
 8001e02:	b289      	uxth	r1, r1
 8001e04:	5444      	strb	r4, [r0, r1]
 8001e06:	8013      	strh	r3, [r2, #0]
 8001e08:	4907      	ldr	r1, [pc, #28]	@ (8001e28 <HAL_UART_RxCpltCallback+0x48>)
 8001e0a:	4804      	ldr	r0, [pc, #16]	@ (8001e1c <HAL_UART_RxCpltCallback+0x3c>)
 8001e0c:	f85d 4b04 	ldr.w	r4, [sp], #4
 8001e10:	2201      	movs	r2, #1
 8001e12:	f002 b938 	b.w	8004086 <HAL_UART_Receive_IT>
 8001e16:	f85d 4b04 	ldr.w	r4, [sp], #4
 8001e1a:	4770      	bx	lr
 8001e1c:	20000340 	.word	0x20000340
 8001e20:	200000d8 	.word	0x200000d8
 8001e24:	200000d6 	.word	0x200000d6
 8001e28:	200000d4 	.word	0x200000d4
 8001e2c:	200000da 	.word	0x200000da

08001e30 <HAL_UART_ErrorCallback>:
 8001e30:	b51f      	push	{r0, r1, r2, r3, r4, lr}
 8001e32:	4b15      	ldr	r3, [pc, #84]	@ (8001e88 <HAL_UART_ErrorCallback+0x58>)
 8001e34:	4298      	cmp	r0, r3
 8001e36:	4604      	mov	r4, r0
 8001e38:	d123      	bne.n	8001e82 <HAL_UART_ErrorCallback+0x52>
 8001e3a:	6803      	ldr	r3, [r0, #0]
 8001e3c:	2200      	movs	r2, #0
 8001e3e:	9200      	str	r2, [sp, #0]
 8001e40:	6819      	ldr	r1, [r3, #0]
 8001e42:	9100      	str	r1, [sp, #0]
 8001e44:	6859      	ldr	r1, [r3, #4]
 8001e46:	9100      	str	r1, [sp, #0]
 8001e48:	9900      	ldr	r1, [sp, #0]
 8001e4a:	9201      	str	r2, [sp, #4]
 8001e4c:	6819      	ldr	r1, [r3, #0]
 8001e4e:	9101      	str	r1, [sp, #4]
 8001e50:	6859      	ldr	r1, [r3, #4]
 8001e52:	9101      	str	r1, [sp, #4]
 8001e54:	9901      	ldr	r1, [sp, #4]
 8001e56:	9202      	str	r2, [sp, #8]
 8001e58:	6819      	ldr	r1, [r3, #0]
 8001e5a:	9102      	str	r1, [sp, #8]
 8001e5c:	6859      	ldr	r1, [r3, #4]
 8001e5e:	9102      	str	r1, [sp, #8]
 8001e60:	9902      	ldr	r1, [sp, #8]
 8001e62:	9203      	str	r2, [sp, #12]
 8001e64:	681a      	ldr	r2, [r3, #0]
 8001e66:	9203      	str	r2, [sp, #12]
 8001e68:	685b      	ldr	r3, [r3, #4]
 8001e6a:	9303      	str	r3, [sp, #12]
 8001e6c:	9b03      	ldr	r3, [sp, #12]
 8001e6e:	f001 feed 	bl	8003c4c <HAL_UART_AbortReceive>
 8001e72:	4906      	ldr	r1, [pc, #24]	@ (8001e8c <HAL_UART_ErrorCallback+0x5c>)
 8001e74:	2201      	movs	r2, #1
 8001e76:	4620      	mov	r0, r4
 8001e78:	b004      	add	sp, #16
 8001e7a:	e8bd 4010 	ldmia.w	sp!, {r4, lr}
 8001e7e:	f002 b902 	b.w	8004086 <HAL_UART_Receive_IT>
 8001e82:	b004      	add	sp, #16
 8001e84:	bd10      	pop	{r4, pc}
 8001e86:	bf00      	nop
 8001e88:	20000340 	.word	0x20000340
 8001e8c:	200000d4 	.word	0x200000d4

08001e90 <Error_Handler>:
 8001e90:	b672      	cpsid	i
 8001e92:	e7fe      	b.n	8001e92 <Error_Handler+0x2>

08001e94 <Protocol_Init>:
 8001e94:	4b05      	ldr	r3, [pc, #20]	@ (8001eac <Protocol_Init+0x18>)
 8001e96:	4806      	ldr	r0, [pc, #24]	@ (8001eb0 <Protocol_Init+0x1c>)
 8001e98:	2100      	movs	r1, #0
 8001e9a:	7019      	strb	r1, [r3, #0]
 8001e9c:	4b05      	ldr	r3, [pc, #20]	@ (8001eb4 <Protocol_Init+0x20>)
 8001e9e:	7019      	strb	r1, [r3, #0]
 8001ea0:	4b05      	ldr	r3, [pc, #20]	@ (8001eb8 <Protocol_Init+0x24>)
 8001ea2:	2226      	movs	r2, #38	@ 0x26
 8001ea4:	7019      	strb	r1, [r3, #0]
 8001ea6:	f002 b8ff 	b.w	80040a8 <memset>
 8001eaa:	bf00      	nop
 8001eac:	200002d0 	.word	0x200002d0
 8001eb0:	200002a9 	.word	0x200002a9
 8001eb4:	200002cf 	.word	0x200002cf
 8001eb8:	200002a8 	.word	0x200002a8

08001ebc <Protocol_PushByte>:
 8001ebc:	b5f8      	push	{r3, r4, r5, r6, r7, lr}
 8001ebe:	4936      	ldr	r1, [pc, #216]	@ (8001f98 <Protocol_PushByte+0xdc>)
 8001ec0:	780c      	ldrb	r4, [r1, #0]
 8001ec2:	b954      	cbnz	r4, 8001eda <Protocol_PushByte+0x1e>
 8001ec4:	28aa      	cmp	r0, #170	@ 0xaa
 8001ec6:	d105      	bne.n	8001ed4 <Protocol_PushByte+0x18>
 8001ec8:	4b34      	ldr	r3, [pc, #208]	@ (8001f9c <Protocol_PushByte+0xe0>)
 8001eca:	7018      	strb	r0, [r3, #0]
 8001ecc:	2301      	movs	r3, #1
 8001ece:	700b      	strb	r3, [r1, #0]
 8001ed0:	4b33      	ldr	r3, [pc, #204]	@ (8001fa0 <Protocol_PushByte+0xe4>)
 8001ed2:	701c      	strb	r4, [r3, #0]
 8001ed4:	2700      	movs	r7, #0
 8001ed6:	4638      	mov	r0, r7
 8001ed8:	bdf8      	pop	{r3, r4, r5, r6, r7, pc}
 8001eda:	2c25      	cmp	r4, #37	@ 0x25
 8001edc:	4d30      	ldr	r5, [pc, #192]	@ (8001fa0 <Protocol_PushByte+0xe4>)
 8001ede:	d90f      	bls.n	8001f00 <Protocol_PushByte+0x44>
 8001ee0:	2300      	movs	r3, #0
 8001ee2:	700b      	strb	r3, [r1, #0]
 8001ee4:	702b      	strb	r3, [r5, #0]
 8001ee6:	2305      	movs	r3, #5
 8001ee8:	4a2e      	ldr	r2, [pc, #184]	@ (8001fa4 <Protocol_PushByte+0xe8>)
 8001eea:	2702      	movs	r7, #2
 8001eec:	7013      	strb	r3, [r2, #0]
 8001eee:	e7f2      	b.n	8001ed6 <Protocol_PushByte+0x1a>
 8001ef0:	2301      	movs	r3, #1
 8001ef2:	e7f9      	b.n	8001ee8 <Protocol_PushByte+0x2c>
 8001ef4:	2302      	movs	r3, #2
 8001ef6:	e7f7      	b.n	8001ee8 <Protocol_PushByte+0x2c>
 8001ef8:	2304      	movs	r3, #4
 8001efa:	e7f5      	b.n	8001ee8 <Protocol_PushByte+0x2c>
 8001efc:	2303      	movs	r3, #3
 8001efe:	e7f3      	b.n	8001ee8 <Protocol_PushByte+0x2c>
 8001f00:	1c63      	adds	r3, r4, #1
 8001f02:	b2db      	uxtb	r3, r3
 8001f04:	4a25      	ldr	r2, [pc, #148]	@ (8001f9c <Protocol_PushByte+0xe0>)
 8001f06:	700b      	strb	r3, [r1, #0]
 8001f08:	2b04      	cmp	r3, #4
 8001f0a:	5510      	strb	r0, [r2, r4]
 8001f0c:	d104      	bne.n	8001f18 <Protocol_PushByte+0x5c>
 8001f0e:	78d0      	ldrb	r0, [r2, #3]
 8001f10:	2820      	cmp	r0, #32
 8001f12:	d8e5      	bhi.n	8001ee0 <Protocol_PushByte+0x24>
 8001f14:	3006      	adds	r0, #6
 8001f16:	7028      	strb	r0, [r5, #0]
 8001f18:	7828      	ldrb	r0, [r5, #0]
 8001f1a:	2800      	cmp	r0, #0
 8001f1c:	d0da      	beq.n	8001ed4 <Protocol_PushByte+0x18>
 8001f1e:	4283      	cmp	r3, r0
 8001f20:	d3d8      	bcc.n	8001ed4 <Protocol_PushByte+0x18>
 8001f22:	78d6      	ldrb	r6, [r2, #3]
 8001f24:	1993      	adds	r3, r2, r6
 8001f26:	7918      	ldrb	r0, [r3, #4]
 8001f28:	795c      	ldrb	r4, [r3, #5]
 8001f2a:	2300      	movs	r3, #0
 8001f2c:	700b      	strb	r3, [r1, #0]
 8001f2e:	7811      	ldrb	r1, [r2, #0]
 8001f30:	702b      	strb	r3, [r5, #0]
 8001f32:	29aa      	cmp	r1, #170	@ 0xaa
 8001f34:	d1dc      	bne.n	8001ef0 <Protocol_PushByte+0x34>
 8001f36:	2c55      	cmp	r4, #85	@ 0x55
 8001f38:	d1dc      	bne.n	8001ef4 <Protocol_PushByte+0x38>
 8001f3a:	7857      	ldrb	r7, [r2, #1]
 8001f3c:	2f01      	cmp	r7, #1
 8001f3e:	d1db      	bne.n	8001ef8 <Protocol_PushByte+0x3c>
 8001f40:	7892      	ldrb	r2, [r2, #2]
 8001f42:	4919      	ldr	r1, [pc, #100]	@ (8001fa8 <Protocol_PushByte+0xec>)
 8001f44:	ea82 0506 	eor.w	r5, r2, r6
 8001f48:	f085 0501 	eor.w	r5, r5, #1
 8001f4c:	b2dc      	uxtb	r4, r3
 8001f4e:	42a6      	cmp	r6, r4
 8001f50:	d81c      	bhi.n	8001f8c <Protocol_PushByte+0xd0>
 8001f52:	42a8      	cmp	r0, r5
 8001f54:	d1d2      	bne.n	8001efc <Protocol_PushByte+0x40>
 8001f56:	4c15      	ldr	r4, [pc, #84]	@ (8001fac <Protocol_PushByte+0xf0>)
 8001f58:	23aa      	movs	r3, #170	@ 0xaa
 8001f5a:	7023      	strb	r3, [r4, #0]
 8001f5c:	70a2      	strb	r2, [r4, #2]
 8001f5e:	2301      	movs	r3, #1
 8001f60:	2220      	movs	r2, #32
 8001f62:	2100      	movs	r1, #0
 8001f64:	1d20      	adds	r0, r4, #4
 8001f66:	7063      	strb	r3, [r4, #1]
 8001f68:	70e6      	strb	r6, [r4, #3]
 8001f6a:	f002 f89d 	bl	80040a8 <memset>
 8001f6e:	b126      	cbz	r6, 8001f7a <Protocol_PushByte+0xbe>
 8001f70:	490f      	ldr	r1, [pc, #60]	@ (8001fb0 <Protocol_PushByte+0xf4>)
 8001f72:	4632      	mov	r2, r6
 8001f74:	1d20      	adds	r0, r4, #4
 8001f76:	f002 f8df 	bl	8004138 <memcpy>
 8001f7a:	2355      	movs	r3, #85	@ 0x55
 8001f7c:	f884 3025 	strb.w	r3, [r4, #37]	@ 0x25
 8001f80:	4b08      	ldr	r3, [pc, #32]	@ (8001fa4 <Protocol_PushByte+0xe8>)
 8001f82:	f884 5024 	strb.w	r5, [r4, #36]	@ 0x24
 8001f86:	2200      	movs	r2, #0
 8001f88:	701a      	strb	r2, [r3, #0]
 8001f8a:	e7a4      	b.n	8001ed6 <Protocol_PushByte+0x1a>
 8001f8c:	f811 4f01 	ldrb.w	r4, [r1, #1]!
 8001f90:	3301      	adds	r3, #1
 8001f92:	4065      	eors	r5, r4
 8001f94:	e7da      	b.n	8001f4c <Protocol_PushByte+0x90>
 8001f96:	bf00      	nop
 8001f98:	200002d0 	.word	0x200002d0
 8001f9c:	200002d1 	.word	0x200002d1
 8001fa0:	200002cf 	.word	0x200002cf
 8001fa4:	200002a8 	.word	0x200002a8
 8001fa8:	200002d4 	.word	0x200002d4
 8001fac:	200002a9 	.word	0x200002a9
 8001fb0:	200002d5 	.word	0x200002d5

08001fb4 <Protocol_GetFrame>:
 8001fb4:	4800      	ldr	r0, [pc, #0]	@ (8001fb8 <Protocol_GetFrame+0x4>)
 8001fb6:	4770      	bx	lr
 8001fb8:	200002a9 	.word	0x200002a9

08001fbc <Protocol_GetLastError>:
 8001fbc:	4b01      	ldr	r3, [pc, #4]	@ (8001fc4 <Protocol_GetLastError+0x8>)
 8001fbe:	7818      	ldrb	r0, [r3, #0]
 8001fc0:	4770      	bx	lr
 8001fc2:	bf00      	nop
 8001fc4:	200002a8 	.word	0x200002a8

08001fc8 <Protocol_BuildFrame>:
 8001fc8:	e92d 41f0 	stmdb	sp!, {r4, r5, r6, r7, r8, lr}
 8001fcc:	9d06      	ldr	r5, [sp, #24]
 8001fce:	4688      	mov	r8, r1
 8001fd0:	4606      	mov	r6, r0
 8001fd2:	4611      	mov	r1, r2
 8001fd4:	461c      	mov	r4, r3
 8001fd6:	b35d      	cbz	r5, 8002030 <Protocol_BuildFrame+0x68>
 8001fd8:	2b20      	cmp	r3, #32
 8001fda:	d829      	bhi.n	8002030 <Protocol_BuildFrame+0x68>
 8001fdc:	1d9f      	adds	r7, r3, #6
 8001fde:	f89d 301c 	ldrb.w	r3, [sp, #28]
 8001fe2:	b2ff      	uxtb	r7, r7
 8001fe4:	42bb      	cmp	r3, r7
 8001fe6:	d323      	bcc.n	8002030 <Protocol_BuildFrame+0x68>
 8001fe8:	23aa      	movs	r3, #170	@ 0xaa
 8001fea:	702b      	strb	r3, [r5, #0]
 8001fec:	7068      	strb	r0, [r5, #1]
 8001fee:	f885 8002 	strb.w	r8, [r5, #2]
 8001ff2:	70ec      	strb	r4, [r5, #3]
 8001ff4:	b124      	cbz	r4, 8002000 <Protocol_BuildFrame+0x38>
 8001ff6:	1d28      	adds	r0, r5, #4
 8001ff8:	4622      	mov	r2, r4
 8001ffa:	b189      	cbz	r1, 8002020 <Protocol_BuildFrame+0x58>
 8001ffc:	f002 f89c 	bl	8004138 <memcpy>
 8002000:	ea86 0108 	eor.w	r1, r6, r8
 8002004:	1d20      	adds	r0, r4, #4
 8002006:	4061      	eors	r1, r4
 8002008:	1cea      	adds	r2, r5, #3
 800200a:	2300      	movs	r3, #0
 800200c:	b2de      	uxtb	r6, r3
 800200e:	42b4      	cmp	r4, r6
 8002010:	d809      	bhi.n	8002026 <Protocol_BuildFrame+0x5e>
 8002012:	442c      	add	r4, r5
 8002014:	2355      	movs	r3, #85	@ 0x55
 8002016:	5429      	strb	r1, [r5, r0]
 8002018:	7163      	strb	r3, [r4, #5]
 800201a:	4638      	mov	r0, r7
 800201c:	e8bd 81f0 	ldmia.w	sp!, {r4, r5, r6, r7, r8, pc}
 8002020:	f002 f842 	bl	80040a8 <memset>
 8002024:	e7ec      	b.n	8002000 <Protocol_BuildFrame+0x38>
 8002026:	f812 6f01 	ldrb.w	r6, [r2, #1]!
 800202a:	3301      	adds	r3, #1
 800202c:	4071      	eors	r1, r6
 800202e:	e7ed      	b.n	800200c <Protocol_BuildFrame+0x44>
 8002030:	2700      	movs	r7, #0
 8002032:	e7f2      	b.n	800201a <Protocol_BuildFrame+0x52>

08002034 <Protocol_BuildStatusFrame>:
 8002034:	b51f      	push	{r0, r1, r2, r3, r4, lr}
 8002036:	2301      	movs	r3, #1
 8002038:	e9cd 1200 	strd	r1, r2, [sp]
 800203c:	f88d 000f 	strb.w	r0, [sp, #15]
 8002040:	f10d 020f 	add.w	r2, sp, #15
 8002044:	21e0      	movs	r1, #224	@ 0xe0
 8002046:	2000      	movs	r0, #0
 8002048:	f7ff ffbe 	bl	8001fc8 <Protocol_BuildFrame>
 800204c:	b005      	add	sp, #20
 800204e:	f85d fb04 	ldr.w	pc, [sp], #4
	...

08002054 <HAL_MspInit>:
 8002054:	b082      	sub	sp, #8
 8002056:	4b0c      	ldr	r3, [pc, #48]	@ (8002088 <HAL_MspInit+0x34>)
 8002058:	2100      	movs	r1, #0
 800205a:	9100      	str	r1, [sp, #0]
 800205c:	6c5a      	ldr	r2, [r3, #68]	@ 0x44
 800205e:	f442 4280 	orr.w	r2, r2, #16384	@ 0x4000
 8002062:	645a      	str	r2, [r3, #68]	@ 0x44
 8002064:	6c5a      	ldr	r2, [r3, #68]	@ 0x44
 8002066:	f402 4280 	and.w	r2, r2, #16384	@ 0x4000
 800206a:	9200      	str	r2, [sp, #0]
 800206c:	9a00      	ldr	r2, [sp, #0]
 800206e:	9101      	str	r1, [sp, #4]
 8002070:	6c1a      	ldr	r2, [r3, #64]	@ 0x40
 8002072:	f042 5280 	orr.w	r2, r2, #268435456	@ 0x10000000
 8002076:	641a      	str	r2, [r3, #64]	@ 0x40
 8002078:	6c1b      	ldr	r3, [r3, #64]	@ 0x40
 800207a:	f003 5380 	and.w	r3, r3, #268435456	@ 0x10000000
 800207e:	9301      	str	r3, [sp, #4]
 8002080:	9b01      	ldr	r3, [sp, #4]
 8002082:	b002      	add	sp, #8
 8002084:	4770      	bx	lr
 8002086:	bf00      	nop
 8002088:	40023800 	.word	0x40023800

0800208c <NMI_Handler>:
 800208c:	e7fe      	b.n	800208c <NMI_Handler>

0800208e <HardFault_Handler>:
 800208e:	e7fe      	b.n	800208e <HardFault_Handler>

08002090 <MemManage_Handler>:
 8002090:	e7fe      	b.n	8002090 <MemManage_Handler>

08002092 <BusFault_Handler>:
 8002092:	e7fe      	b.n	8002092 <BusFault_Handler>

08002094 <UsageFault_Handler>:
 8002094:	e7fe      	b.n	8002094 <UsageFault_Handler>

08002096 <SVC_Handler>:
 8002096:	4770      	bx	lr

08002098 <DebugMon_Handler>:
 8002098:	4770      	bx	lr

0800209a <PendSV_Handler>:
 800209a:	4770      	bx	lr

0800209c <SysTick_Handler>:
 800209c:	f000 b996 	b.w	80023cc <HAL_IncTick>

080020a0 <USART6_IRQHandler>:
 80020a0:	4801      	ldr	r0, [pc, #4]	@ (80020a8 <USART6_IRQHandler+0x8>)
 80020a2:	f001 be87 	b.w	8003db4 <HAL_UART_IRQHandler>
 80020a6:	bf00      	nop
 80020a8:	20000340 	.word	0x20000340

080020ac <SystemInit>:
 80020ac:	4b0c      	ldr	r3, [pc, #48]	@ (80020e0 <SystemInit+0x34>)
 80020ae:	681a      	ldr	r2, [r3, #0]
 80020b0:	f042 0201 	orr.w	r2, r2, #1
 80020b4:	601a      	str	r2, [r3, #0]
 80020b6:	681a      	ldr	r2, [r3, #0]
 80020b8:	0792      	lsls	r2, r2, #30
 80020ba:	d5fc      	bpl.n	80020b6 <SystemInit+0xa>
 80020bc:	681a      	ldr	r2, [r3, #0]
 80020be:	f422 3280 	bic.w	r2, r2, #65536	@ 0x10000
 80020c2:	601a      	str	r2, [r3, #0]
 80020c4:	681a      	ldr	r2, [r3, #0]
 80020c6:	f022 7280 	bic.w	r2, r2, #16777216	@ 0x1000000
 80020ca:	601a      	str	r2, [r3, #0]
 80020cc:	2200      	movs	r2, #0
 80020ce:	609a      	str	r2, [r3, #8]
 80020d0:	4a04      	ldr	r2, [pc, #16]	@ (80020e4 <SystemInit+0x38>)
 80020d2:	f8d2 3088 	ldr.w	r3, [r2, #136]	@ 0x88
 80020d6:	f443 0370 	orr.w	r3, r3, #15728640	@ 0xf00000
 80020da:	f8c2 3088 	str.w	r3, [r2, #136]	@ 0x88
 80020de:	4770      	bx	lr
 80020e0:	40023800 	.word	0x40023800
 80020e4:	e000ed00 	.word	0xe000ed00

080020e8 <HAL_TIM_PWM_MspInit>:
 80020e8:	6802      	ldr	r2, [r0, #0]
 80020ea:	4b09      	ldr	r3, [pc, #36]	@ (8002110 <HAL_TIM_PWM_MspInit+0x28>)
 80020ec:	429a      	cmp	r2, r3
 80020ee:	b082      	sub	sp, #8
 80020f0:	d10b      	bne.n	800210a <HAL_TIM_PWM_MspInit+0x22>
 80020f2:	2300      	movs	r3, #0
 80020f4:	9301      	str	r3, [sp, #4]
 80020f6:	4b07      	ldr	r3, [pc, #28]	@ (8002114 <HAL_TIM_PWM_MspInit+0x2c>)
 80020f8:	6c5a      	ldr	r2, [r3, #68]	@ 0x44
 80020fa:	f042 0201 	orr.w	r2, r2, #1
 80020fe:	645a      	str	r2, [r3, #68]	@ 0x44
 8002100:	6c5b      	ldr	r3, [r3, #68]	@ 0x44
 8002102:	f003 0301 	and.w	r3, r3, #1
 8002106:	9301      	str	r3, [sp, #4]
 8002108:	9b01      	ldr	r3, [sp, #4]
 800210a:	b002      	add	sp, #8
 800210c:	4770      	bx	lr
 800210e:	bf00      	nop
 8002110:	40010000 	.word	0x40010000
 8002114:	40023800 	.word	0x40023800

08002118 <HAL_TIM_MspPostInit>:
 8002118:	b510      	push	{r4, lr}
 800211a:	4604      	mov	r4, r0
 800211c:	b086      	sub	sp, #24
 800211e:	2214      	movs	r2, #20
 8002120:	2100      	movs	r1, #0
 8002122:	a801      	add	r0, sp, #4
 8002124:	f001 ffc0 	bl	80040a8 <memset>
 8002128:	6822      	ldr	r2, [r4, #0]
 800212a:	4b0e      	ldr	r3, [pc, #56]	@ (8002164 <HAL_TIM_MspPostInit+0x4c>)
 800212c:	429a      	cmp	r2, r3
 800212e:	d116      	bne.n	800215e <HAL_TIM_MspPostInit+0x46>
 8002130:	2300      	movs	r3, #0
 8002132:	9300      	str	r3, [sp, #0]
 8002134:	4b0c      	ldr	r3, [pc, #48]	@ (8002168 <HAL_TIM_MspPostInit+0x50>)
 8002136:	480d      	ldr	r0, [pc, #52]	@ (800216c <HAL_TIM_MspPostInit+0x54>)
 8002138:	6b1a      	ldr	r2, [r3, #48]	@ 0x30
 800213a:	f042 0201 	orr.w	r2, r2, #1
 800213e:	631a      	str	r2, [r3, #48]	@ 0x30
 8002140:	6b1b      	ldr	r3, [r3, #48]	@ 0x30
 8002142:	f003 0301 	and.w	r3, r3, #1
 8002146:	9300      	str	r3, [sp, #0]
 8002148:	9b00      	ldr	r3, [sp, #0]
 800214a:	f44f 6270 	mov.w	r2, #3840	@ 0xf00
 800214e:	2302      	movs	r3, #2
 8002150:	e9cd 2301 	strd	r2, r3, [sp, #4]
 8002154:	a901      	add	r1, sp, #4
 8002156:	2301      	movs	r3, #1
 8002158:	9305      	str	r3, [sp, #20]
 800215a:	f000 fa15 	bl	8002588 <HAL_GPIO_Init>
 800215e:	b006      	add	sp, #24
 8002160:	bd10      	pop	{r4, pc}
 8002162:	bf00      	nop
 8002164:	40010000 	.word	0x40010000
 8002168:	40023800 	.word	0x40023800
 800216c:	40020000 	.word	0x40020000

08002170 <MX_TIM1_Init>:
 8002170:	b510      	push	{r4, lr}
 8002172:	2400      	movs	r4, #0
 8002174:	b092      	sub	sp, #72	@ 0x48
 8002176:	221c      	movs	r2, #28
 8002178:	4621      	mov	r1, r4
 800217a:	a803      	add	r0, sp, #12
 800217c:	e9cd 4401 	strd	r4, r4, [sp, #4]
 8002180:	f001 ff92 	bl	80040a8 <memset>
 8002184:	2220      	movs	r2, #32
 8002186:	4621      	mov	r1, r4
 8002188:	a80a      	add	r0, sp, #40	@ 0x28
 800218a:	f001 ff8d 	bl	80040a8 <memset>
 800218e:	482c      	ldr	r0, [pc, #176]	@ (8002240 <MX_TIM1_Init+0xd0>)
 8002190:	4b2c      	ldr	r3, [pc, #176]	@ (8002244 <MX_TIM1_Init+0xd4>)
 8002192:	6084      	str	r4, [r0, #8]
 8002194:	e9c0 3400 	strd	r3, r4, [r0]
 8002198:	f242 7310 	movw	r3, #10000	@ 0x2710
 800219c:	e9c0 3403 	strd	r3, r4, [r0, #12]
 80021a0:	e9c0 4405 	strd	r4, r4, [r0, #20]
 80021a4:	f001 fa4e 	bl	8003644 <HAL_TIM_PWM_Init>
 80021a8:	b108      	cbz	r0, 80021ae <MX_TIM1_Init+0x3e>
 80021aa:	f7ff fe71 	bl	8001e90 <Error_Handler>
 80021ae:	4824      	ldr	r0, [pc, #144]	@ (8002240 <MX_TIM1_Init+0xd0>)
 80021b0:	a901      	add	r1, sp, #4
 80021b2:	e9cd 4401 	strd	r4, r4, [sp, #4]
 80021b6:	f001 fb5b 	bl	8003870 <HAL_TIMEx_MasterConfigSynchronization>
 80021ba:	b108      	cbz	r0, 80021c0 <MX_TIM1_Init+0x50>
 80021bc:	f7ff fe68 	bl	8001e90 <Error_Handler>
 80021c0:	2200      	movs	r2, #0
 80021c2:	2360      	movs	r3, #96	@ 0x60
 80021c4:	481e      	ldr	r0, [pc, #120]	@ (8002240 <MX_TIM1_Init+0xd0>)
 80021c6:	9209      	str	r2, [sp, #36]	@ 0x24
 80021c8:	a903      	add	r1, sp, #12
 80021ca:	e9cd 3203 	strd	r3, r2, [sp, #12]
 80021ce:	e9cd 2205 	strd	r2, r2, [sp, #20]
 80021d2:	e9cd 2207 	strd	r2, r2, [sp, #28]
 80021d6:	f001 fa8d 	bl	80036f4 <HAL_TIM_PWM_ConfigChannel>
 80021da:	b108      	cbz	r0, 80021e0 <MX_TIM1_Init+0x70>
 80021dc:	f7ff fe58 	bl	8001e90 <Error_Handler>
 80021e0:	4817      	ldr	r0, [pc, #92]	@ (8002240 <MX_TIM1_Init+0xd0>)
 80021e2:	2204      	movs	r2, #4
 80021e4:	a903      	add	r1, sp, #12
 80021e6:	f001 fa85 	bl	80036f4 <HAL_TIM_PWM_ConfigChannel>
 80021ea:	b108      	cbz	r0, 80021f0 <MX_TIM1_Init+0x80>
 80021ec:	f7ff fe50 	bl	8001e90 <Error_Handler>
 80021f0:	4813      	ldr	r0, [pc, #76]	@ (8002240 <MX_TIM1_Init+0xd0>)
 80021f2:	2208      	movs	r2, #8
 80021f4:	a903      	add	r1, sp, #12
 80021f6:	f001 fa7d 	bl	80036f4 <HAL_TIM_PWM_ConfigChannel>
 80021fa:	b108      	cbz	r0, 8002200 <MX_TIM1_Init+0x90>
 80021fc:	f7ff fe48 	bl	8001e90 <Error_Handler>
 8002200:	220c      	movs	r2, #12
 8002202:	480f      	ldr	r0, [pc, #60]	@ (8002240 <MX_TIM1_Init+0xd0>)
 8002204:	eb0d 0102 	add.w	r1, sp, r2
 8002208:	f001 fa74 	bl	80036f4 <HAL_TIM_PWM_ConfigChannel>
 800220c:	b108      	cbz	r0, 8002212 <MX_TIM1_Init+0xa2>
 800220e:	f7ff fe3f 	bl	8001e90 <Error_Handler>
 8002212:	2300      	movs	r3, #0
 8002214:	f44f 5200 	mov.w	r2, #8192	@ 0x2000
 8002218:	4809      	ldr	r0, [pc, #36]	@ (8002240 <MX_TIM1_Init+0xd0>)
 800221a:	930e      	str	r3, [sp, #56]	@ 0x38
 800221c:	a90a      	add	r1, sp, #40	@ 0x28
 800221e:	e9cd 330a 	strd	r3, r3, [sp, #40]	@ 0x28
 8002222:	e9cd 330c 	strd	r3, r3, [sp, #48]	@ 0x30
 8002226:	920f      	str	r2, [sp, #60]	@ 0x3c
 8002228:	9311      	str	r3, [sp, #68]	@ 0x44
 800222a:	f001 fb57 	bl	80038dc <HAL_TIMEx_ConfigBreakDeadTime>
 800222e:	b108      	cbz	r0, 8002234 <MX_TIM1_Init+0xc4>
 8002230:	f7ff fe2e 	bl	8001e90 <Error_Handler>
 8002234:	4802      	ldr	r0, [pc, #8]	@ (8002240 <MX_TIM1_Init+0xd0>)
 8002236:	f7ff ff6f 	bl	8002118 <HAL_TIM_MspPostInit>
 800223a:	b012      	add	sp, #72	@ 0x48
 800223c:	bd10      	pop	{r4, pc}
 800223e:	bf00      	nop
 8002240:	200002f8 	.word	0x200002f8
 8002244:	40010000 	.word	0x40010000

08002248 <MX_USART6_UART_Init>:
 8002248:	480b      	ldr	r0, [pc, #44]	@ (8002278 <MX_USART6_UART_Init+0x30>)
 800224a:	4a0c      	ldr	r2, [pc, #48]	@ (800227c <MX_USART6_UART_Init+0x34>)
 800224c:	b508      	push	{r3, lr}
 800224e:	f44f 33e1 	mov.w	r3, #115200	@ 0x1c200
 8002252:	e9c0 2300 	strd	r2, r3, [r0]
 8002256:	2300      	movs	r3, #0
 8002258:	220c      	movs	r2, #12
 800225a:	e9c0 3302 	strd	r3, r3, [r0, #8]
 800225e:	e9c0 2305 	strd	r2, r3, [r0, #20]
 8002262:	6103      	str	r3, [r0, #16]
 8002264:	61c3      	str	r3, [r0, #28]
 8002266:	f001 fc1d 	bl	8003aa4 <HAL_UART_Init>
 800226a:	b118      	cbz	r0, 8002274 <MX_USART6_UART_Init+0x2c>
 800226c:	e8bd 4008 	ldmia.w	sp!, {r3, lr}
 8002270:	f7ff be0e 	b.w	8001e90 <Error_Handler>
 8002274:	bd08      	pop	{r3, pc}
 8002276:	bf00      	nop
 8002278:	20000340 	.word	0x20000340
 800227c:	40011400 	.word	0x40011400

08002280 <HAL_UART_MspInit>:
 8002280:	b510      	push	{r4, lr}
 8002282:	4604      	mov	r4, r0
 8002284:	b088      	sub	sp, #32
 8002286:	2214      	movs	r2, #20
 8002288:	2100      	movs	r1, #0
 800228a:	a803      	add	r0, sp, #12
 800228c:	f001 ff0c 	bl	80040a8 <memset>
 8002290:	6822      	ldr	r2, [r4, #0]
 8002292:	4b18      	ldr	r3, [pc, #96]	@ (80022f4 <HAL_UART_MspInit+0x74>)
 8002294:	429a      	cmp	r2, r3
 8002296:	d12a      	bne.n	80022ee <HAL_UART_MspInit+0x6e>
 8002298:	f503 3392 	add.w	r3, r3, #74752	@ 0x12400
 800229c:	2400      	movs	r4, #0
 800229e:	9401      	str	r4, [sp, #4]
 80022a0:	6c5a      	ldr	r2, [r3, #68]	@ 0x44
 80022a2:	4815      	ldr	r0, [pc, #84]	@ (80022f8 <HAL_UART_MspInit+0x78>)
 80022a4:	f042 0220 	orr.w	r2, r2, #32
 80022a8:	645a      	str	r2, [r3, #68]	@ 0x44
 80022aa:	6c5a      	ldr	r2, [r3, #68]	@ 0x44
 80022ac:	f002 0220 	and.w	r2, r2, #32
 80022b0:	9201      	str	r2, [sp, #4]
 80022b2:	9a01      	ldr	r2, [sp, #4]
 80022b4:	9402      	str	r4, [sp, #8]
 80022b6:	6b1a      	ldr	r2, [r3, #48]	@ 0x30
 80022b8:	f042 0204 	orr.w	r2, r2, #4
 80022bc:	631a      	str	r2, [r3, #48]	@ 0x30
 80022be:	6b1b      	ldr	r3, [r3, #48]	@ 0x30
 80022c0:	f003 0304 	and.w	r3, r3, #4
 80022c4:	9302      	str	r3, [sp, #8]
 80022c6:	22c0      	movs	r2, #192	@ 0xc0
 80022c8:	9b02      	ldr	r3, [sp, #8]
 80022ca:	2302      	movs	r3, #2
 80022cc:	e9cd 2303 	strd	r2, r3, [sp, #12]
 80022d0:	2103      	movs	r1, #3
 80022d2:	2308      	movs	r3, #8
 80022d4:	e9cd 1306 	strd	r1, r3, [sp, #24]
 80022d8:	a903      	add	r1, sp, #12
 80022da:	f000 f955 	bl	8002588 <HAL_GPIO_Init>
 80022de:	2047      	movs	r0, #71	@ 0x47
 80022e0:	4622      	mov	r2, r4
 80022e2:	4621      	mov	r1, r4
 80022e4:	f000 f8aa 	bl	800243c <HAL_NVIC_SetPriority>
 80022e8:	2047      	movs	r0, #71	@ 0x47
 80022ea:	f000 f8d9 	bl	80024a0 <HAL_NVIC_EnableIRQ>
 80022ee:	b008      	add	sp, #32
 80022f0:	bd10      	pop	{r4, pc}
 80022f2:	bf00      	nop
 80022f4:	40011400 	.word	0x40011400
 80022f8:	40020800 	.word	0x40020800

080022fc <Reset_Handler>:
 80022fc:	f8df d034 	ldr.w	sp, [pc, #52]	@ 8002334 <LoopFillZerobss+0xe>
 8002300:	f7ff fed4 	bl	80020ac <SystemInit>
 8002304:	480c      	ldr	r0, [pc, #48]	@ (8002338 <LoopFillZerobss+0x12>)
 8002306:	490d      	ldr	r1, [pc, #52]	@ (800233c <LoopFillZerobss+0x16>)
 8002308:	4a0d      	ldr	r2, [pc, #52]	@ (8002340 <LoopFillZerobss+0x1a>)
 800230a:	2300      	movs	r3, #0
 800230c:	e002      	b.n	8002314 <LoopCopyDataInit>

0800230e <CopyDataInit>:
 800230e:	58d4      	ldr	r4, [r2, r3]
 8002310:	50c4      	str	r4, [r0, r3]
 8002312:	3304      	adds	r3, #4

08002314 <LoopCopyDataInit>:
 8002314:	18c4      	adds	r4, r0, r3
 8002316:	428c      	cmp	r4, r1
 8002318:	d3f9      	bcc.n	800230e <CopyDataInit>
 800231a:	4a0a      	ldr	r2, [pc, #40]	@ (8002344 <LoopFillZerobss+0x1e>)
 800231c:	4c0a      	ldr	r4, [pc, #40]	@ (8002348 <LoopFillZerobss+0x22>)
 800231e:	2300      	movs	r3, #0
 8002320:	e001      	b.n	8002326 <LoopFillZerobss>

08002322 <FillZerobss>:
 8002322:	6013      	str	r3, [r2, #0]
 8002324:	3204      	adds	r2, #4

08002326 <LoopFillZerobss>:
 8002326:	42a2      	cmp	r2, r4
 8002328:	d3fb      	bcc.n	8002322 <FillZerobss>
 800232a:	f001 fee1 	bl	80040f0 <__libc_init_array>
 800232e:	f7fe fd17 	bl	8000d60 <main>
 8002332:	4770      	bx	lr
 8002334:	20020000 	.word	0x20020000
 8002338:	20000000 	.word	0x20000000
 800233c:	20000060 	.word	0x20000060
 8002340:	0800486c 	.word	0x0800486c
 8002344:	20000060 	.word	0x20000060
 8002348:	200004c4 	.word	0x200004c4

0800234c <ADC_IRQHandler>:
 800234c:	e7fe      	b.n	800234c <ADC_IRQHandler>
	...

08002350 <HAL_InitTick>:
 8002350:	b538      	push	{r3, r4, r5, lr}
 8002352:	4b0e      	ldr	r3, [pc, #56]	@ (800238c <HAL_InitTick+0x3c>)
 8002354:	781a      	ldrb	r2, [r3, #0]
 8002356:	f44f 737a 	mov.w	r3, #1000	@ 0x3e8
 800235a:	fbb3 f3f2 	udiv	r3, r3, r2
 800235e:	4a0c      	ldr	r2, [pc, #48]	@ (8002390 <HAL_InitTick+0x40>)
 8002360:	4605      	mov	r5, r0
 8002362:	6810      	ldr	r0, [r2, #0]
 8002364:	fbb0 f0f3 	udiv	r0, r0, r3
 8002368:	f000 f8a8 	bl	80024bc <HAL_SYSTICK_Config>
 800236c:	4604      	mov	r4, r0
 800236e:	b958      	cbnz	r0, 8002388 <HAL_InitTick+0x38>
 8002370:	2d0f      	cmp	r5, #15
 8002372:	d809      	bhi.n	8002388 <HAL_InitTick+0x38>
 8002374:	4602      	mov	r2, r0
 8002376:	4629      	mov	r1, r5
 8002378:	f04f 30ff 	mov.w	r0, #4294967295
 800237c:	f000 f85e 	bl	800243c <HAL_NVIC_SetPriority>
 8002380:	4b04      	ldr	r3, [pc, #16]	@ (8002394 <HAL_InitTick+0x44>)
 8002382:	4620      	mov	r0, r4
 8002384:	601d      	str	r5, [r3, #0]
 8002386:	bd38      	pop	{r3, r4, r5, pc}
 8002388:	2001      	movs	r0, #1
 800238a:	e7fc      	b.n	8002386 <HAL_InitTick+0x36>
 800238c:	20000008 	.word	0x20000008
 8002390:	20000004 	.word	0x20000004
 8002394:	2000000c 	.word	0x2000000c

08002398 <HAL_Init>:
 8002398:	b508      	push	{r3, lr}
 800239a:	4b0b      	ldr	r3, [pc, #44]	@ (80023c8 <HAL_Init+0x30>)
 800239c:	681a      	ldr	r2, [r3, #0]
 800239e:	f442 7200 	orr.w	r2, r2, #512	@ 0x200
 80023a2:	601a      	str	r2, [r3, #0]
 80023a4:	681a      	ldr	r2, [r3, #0]
 80023a6:	f442 6280 	orr.w	r2, r2, #1024	@ 0x400
 80023aa:	601a      	str	r2, [r3, #0]
 80023ac:	681a      	ldr	r2, [r3, #0]
 80023ae:	f442 7280 	orr.w	r2, r2, #256	@ 0x100
 80023b2:	601a      	str	r2, [r3, #0]
 80023b4:	2003      	movs	r0, #3
 80023b6:	f000 f82f 	bl	8002418 <HAL_NVIC_SetPriorityGrouping>
 80023ba:	200f      	movs	r0, #15
 80023bc:	f7ff ffc8 	bl	8002350 <HAL_InitTick>
 80023c0:	f7ff fe48 	bl	8002054 <HAL_MspInit>
 80023c4:	2000      	movs	r0, #0
 80023c6:	bd08      	pop	{r3, pc}
 80023c8:	40023c00 	.word	0x40023c00

080023cc <HAL_IncTick>:
 80023cc:	4a03      	ldr	r2, [pc, #12]	@ (80023dc <HAL_IncTick+0x10>)
 80023ce:	4b04      	ldr	r3, [pc, #16]	@ (80023e0 <HAL_IncTick+0x14>)
 80023d0:	6811      	ldr	r1, [r2, #0]
 80023d2:	781b      	ldrb	r3, [r3, #0]
 80023d4:	440b      	add	r3, r1
 80023d6:	6013      	str	r3, [r2, #0]
 80023d8:	4770      	bx	lr
 80023da:	bf00      	nop
 80023dc:	20000388 	.word	0x20000388
 80023e0:	20000008 	.word	0x20000008

080023e4 <HAL_GetTick>:
 80023e4:	4b01      	ldr	r3, [pc, #4]	@ (80023ec <HAL_GetTick+0x8>)
 80023e6:	6818      	ldr	r0, [r3, #0]
 80023e8:	4770      	bx	lr
 80023ea:	bf00      	nop
 80023ec:	20000388 	.word	0x20000388

080023f0 <HAL_Delay>:
 80023f0:	b538      	push	{r3, r4, r5, lr}
 80023f2:	4604      	mov	r4, r0
 80023f4:	f7ff fff6 	bl	80023e4 <HAL_GetTick>
 80023f8:	1c63      	adds	r3, r4, #1
 80023fa:	bf1c      	itt	ne
 80023fc:	4b05      	ldrne	r3, [pc, #20]	@ (8002414 <HAL_Delay+0x24>)
 80023fe:	781b      	ldrbne	r3, [r3, #0]
 8002400:	4605      	mov	r5, r0
 8002402:	bf18      	it	ne
 8002404:	18e4      	addne	r4, r4, r3
 8002406:	f7ff ffed 	bl	80023e4 <HAL_GetTick>
 800240a:	1b43      	subs	r3, r0, r5
 800240c:	42a3      	cmp	r3, r4
 800240e:	d3fa      	bcc.n	8002406 <HAL_Delay+0x16>
 8002410:	bd38      	pop	{r3, r4, r5, pc}
 8002412:	bf00      	nop
 8002414:	20000008 	.word	0x20000008

08002418 <HAL_NVIC_SetPriorityGrouping>:
 8002418:	4907      	ldr	r1, [pc, #28]	@ (8002438 <HAL_NVIC_SetPriorityGrouping+0x20>)
 800241a:	68ca      	ldr	r2, [r1, #12]
 800241c:	f422 62e0 	bic.w	r2, r2, #1792	@ 0x700
 8002420:	0203      	lsls	r3, r0, #8
 8002422:	0412      	lsls	r2, r2, #16
 8002424:	f403 63e0 	and.w	r3, r3, #1792	@ 0x700
 8002428:	0c12      	lsrs	r2, r2, #16
 800242a:	4313      	orrs	r3, r2
 800242c:	f043 63bf 	orr.w	r3, r3, #100139008	@ 0x5f80000
 8002430:	f443 3300 	orr.w	r3, r3, #131072	@ 0x20000
 8002434:	60cb      	str	r3, [r1, #12]
 8002436:	4770      	bx	lr
 8002438:	e000ed00 	.word	0xe000ed00

0800243c <HAL_NVIC_SetPriority>:
 800243c:	4b16      	ldr	r3, [pc, #88]	@ (8002498 <HAL_NVIC_SetPriority+0x5c>)
 800243e:	b530      	push	{r4, r5, lr}
 8002440:	68dc      	ldr	r4, [r3, #12]
 8002442:	f3c4 2402 	ubfx	r4, r4, #8, #3
 8002446:	f1c4 0307 	rsb	r3, r4, #7
 800244a:	1d25      	adds	r5, r4, #4
 800244c:	2b04      	cmp	r3, #4
 800244e:	bf28      	it	cs
 8002450:	2304      	movcs	r3, #4
 8002452:	2d06      	cmp	r5, #6
 8002454:	f04f 35ff 	mov.w	r5, #4294967295
 8002458:	bf8c      	ite	hi
 800245a:	3c03      	subhi	r4, #3
 800245c:	2400      	movls	r4, #0
 800245e:	fa05 f303 	lsl.w	r3, r5, r3
 8002462:	ea21 0303 	bic.w	r3, r1, r3
 8002466:	40a5      	lsls	r5, r4
 8002468:	ea22 0205 	bic.w	r2, r2, r5
 800246c:	40a3      	lsls	r3, r4
 800246e:	2800      	cmp	r0, #0
 8002470:	ea43 0302 	orr.w	r3, r3, r2
 8002474:	bfac      	ite	ge
 8002476:	f100 4060 	addge.w	r0, r0, #3758096384	@ 0xe0000000
 800247a:	4a08      	ldrlt	r2, [pc, #32]	@ (800249c <HAL_NVIC_SetPriority+0x60>)
 800247c:	ea4f 1303 	mov.w	r3, r3, lsl #4
 8002480:	bfb8      	it	lt
 8002482:	f000 000f 	andlt.w	r0, r0, #15
 8002486:	b2db      	uxtb	r3, r3
 8002488:	bfaa      	itet	ge
 800248a:	f500 4061 	addge.w	r0, r0, #57600	@ 0xe100
 800248e:	5413      	strblt	r3, [r2, r0]
 8002490:	f880 3300 	strbge.w	r3, [r0, #768]	@ 0x300
 8002494:	bd30      	pop	{r4, r5, pc}
 8002496:	bf00      	nop
 8002498:	e000ed00 	.word	0xe000ed00
 800249c:	e000ed14 	.word	0xe000ed14

080024a0 <HAL_NVIC_EnableIRQ>:
 80024a0:	2800      	cmp	r0, #0
 80024a2:	db07      	blt.n	80024b4 <HAL_NVIC_EnableIRQ+0x14>
 80024a4:	4a04      	ldr	r2, [pc, #16]	@ (80024b8 <HAL_NVIC_EnableIRQ+0x18>)
 80024a6:	0941      	lsrs	r1, r0, #5
 80024a8:	2301      	movs	r3, #1
 80024aa:	f000 001f 	and.w	r0, r0, #31
 80024ae:	4083      	lsls	r3, r0
 80024b0:	f842 3021 	str.w	r3, [r2, r1, lsl #2]
 80024b4:	4770      	bx	lr
 80024b6:	bf00      	nop
 80024b8:	e000e100 	.word	0xe000e100

080024bc <HAL_SYSTICK_Config>:
 80024bc:	3801      	subs	r0, #1
 80024be:	f1b0 7f80 	cmp.w	r0, #16777216	@ 0x1000000
 80024c2:	d20b      	bcs.n	80024dc <HAL_SYSTICK_Config+0x20>
 80024c4:	f04f 23e0 	mov.w	r3, #3758153728	@ 0xe000e000
 80024c8:	4a05      	ldr	r2, [pc, #20]	@ (80024e0 <HAL_SYSTICK_Config+0x24>)
 80024ca:	6158      	str	r0, [r3, #20]
 80024cc:	21f0      	movs	r1, #240	@ 0xf0
 80024ce:	f882 1023 	strb.w	r1, [r2, #35]	@ 0x23
 80024d2:	2000      	movs	r0, #0
 80024d4:	2207      	movs	r2, #7
 80024d6:	6198      	str	r0, [r3, #24]
 80024d8:	611a      	str	r2, [r3, #16]
 80024da:	4770      	bx	lr
 80024dc:	2001      	movs	r0, #1
 80024de:	4770      	bx	lr
 80024e0:	e000ed00 	.word	0xe000ed00

080024e4 <HAL_DMA_Abort>:
 80024e4:	b570      	push	{r4, r5, r6, lr}
 80024e6:	4604      	mov	r4, r0
 80024e8:	6d86      	ldr	r6, [r0, #88]	@ 0x58
 80024ea:	f7ff ff7b 	bl	80023e4 <HAL_GetTick>
 80024ee:	f894 3035 	ldrb.w	r3, [r4, #53]	@ 0x35
 80024f2:	2b02      	cmp	r3, #2
 80024f4:	4605      	mov	r5, r0
 80024f6:	d006      	beq.n	8002506 <HAL_DMA_Abort+0x22>
 80024f8:	2380      	movs	r3, #128	@ 0x80
 80024fa:	6563      	str	r3, [r4, #84]	@ 0x54
 80024fc:	2001      	movs	r0, #1
 80024fe:	2300      	movs	r3, #0
 8002500:	f884 3034 	strb.w	r3, [r4, #52]	@ 0x34
 8002504:	bd70      	pop	{r4, r5, r6, pc}
 8002506:	6823      	ldr	r3, [r4, #0]
 8002508:	681a      	ldr	r2, [r3, #0]
 800250a:	f022 0216 	bic.w	r2, r2, #22
 800250e:	601a      	str	r2, [r3, #0]
 8002510:	695a      	ldr	r2, [r3, #20]
 8002512:	f022 0280 	bic.w	r2, r2, #128	@ 0x80
 8002516:	615a      	str	r2, [r3, #20]
 8002518:	6c22      	ldr	r2, [r4, #64]	@ 0x40
 800251a:	b90a      	cbnz	r2, 8002520 <HAL_DMA_Abort+0x3c>
 800251c:	6ca2      	ldr	r2, [r4, #72]	@ 0x48
 800251e:	b11a      	cbz	r2, 8002528 <HAL_DMA_Abort+0x44>
 8002520:	681a      	ldr	r2, [r3, #0]
 8002522:	f022 0208 	bic.w	r2, r2, #8
 8002526:	601a      	str	r2, [r3, #0]
 8002528:	681a      	ldr	r2, [r3, #0]
 800252a:	f022 0201 	bic.w	r2, r2, #1
 800252e:	601a      	str	r2, [r3, #0]
 8002530:	6823      	ldr	r3, [r4, #0]
 8002532:	6818      	ldr	r0, [r3, #0]
 8002534:	f010 0001 	ands.w	r0, r0, #1
 8002538:	d107      	bne.n	800254a <HAL_DMA_Abort+0x66>
 800253a:	6de2      	ldr	r2, [r4, #92]	@ 0x5c
 800253c:	233f      	movs	r3, #63	@ 0x3f
 800253e:	4093      	lsls	r3, r2
 8002540:	60b3      	str	r3, [r6, #8]
 8002542:	2301      	movs	r3, #1
 8002544:	f884 3035 	strb.w	r3, [r4, #53]	@ 0x35
 8002548:	e7d9      	b.n	80024fe <HAL_DMA_Abort+0x1a>
 800254a:	f7ff ff4b 	bl	80023e4 <HAL_GetTick>
 800254e:	1b40      	subs	r0, r0, r5
 8002550:	2805      	cmp	r0, #5
 8002552:	d9ed      	bls.n	8002530 <HAL_DMA_Abort+0x4c>
 8002554:	2320      	movs	r3, #32
 8002556:	2003      	movs	r0, #3
 8002558:	6563      	str	r3, [r4, #84]	@ 0x54
 800255a:	f884 0035 	strb.w	r0, [r4, #53]	@ 0x35
 800255e:	e7ce      	b.n	80024fe <HAL_DMA_Abort+0x1a>

08002560 <HAL_DMA_Abort_IT>:
 8002560:	f890 3035 	ldrb.w	r3, [r0, #53]	@ 0x35
 8002564:	2b02      	cmp	r3, #2
 8002566:	d003      	beq.n	8002570 <HAL_DMA_Abort_IT+0x10>
 8002568:	2380      	movs	r3, #128	@ 0x80
 800256a:	6543      	str	r3, [r0, #84]	@ 0x54
 800256c:	2001      	movs	r0, #1
 800256e:	4770      	bx	lr
 8002570:	6802      	ldr	r2, [r0, #0]
 8002572:	2305      	movs	r3, #5
 8002574:	f880 3035 	strb.w	r3, [r0, #53]	@ 0x35
 8002578:	6813      	ldr	r3, [r2, #0]
 800257a:	f023 0301 	bic.w	r3, r3, #1
 800257e:	6013      	str	r3, [r2, #0]
 8002580:	2000      	movs	r0, #0
 8002582:	4770      	bx	lr

08002584 <HAL_DMA_GetError>:
 8002584:	6d40      	ldr	r0, [r0, #84]	@ 0x54
 8002586:	4770      	bx	lr

08002588 <HAL_GPIO_Init>:
 8002588:	e92d 4ff7 	stmdb	sp!, {r0, r1, r2, r4, r5, r6, r7, r8, r9, sl, fp, lr}
 800258c:	f8df 9180 	ldr.w	r9, [pc, #384]	@ 8002710 <HAL_GPIO_Init+0x188>
 8002590:	4a5d      	ldr	r2, [pc, #372]	@ (8002708 <HAL_GPIO_Init+0x180>)
 8002592:	2300      	movs	r3, #0
 8002594:	680d      	ldr	r5, [r1, #0]
 8002596:	2401      	movs	r4, #1
 8002598:	409c      	lsls	r4, r3
 800259a:	ea04 0605 	and.w	r6, r4, r5
 800259e:	43ac      	bics	r4, r5
 80025a0:	f040 80a3 	bne.w	80026ea <HAL_GPIO_Init+0x162>
 80025a4:	684d      	ldr	r5, [r1, #4]
 80025a6:	2703      	movs	r7, #3
 80025a8:	f005 0403 	and.w	r4, r5, #3
 80025ac:	ea4f 0843 	mov.w	r8, r3, lsl #1
 80025b0:	fa07 fc08 	lsl.w	ip, r7, r8
 80025b4:	1e67      	subs	r7, r4, #1
 80025b6:	2f01      	cmp	r7, #1
 80025b8:	ea6f 0c0c 	mvn.w	ip, ip
 80025bc:	d834      	bhi.n	8002628 <HAL_GPIO_Init+0xa0>
 80025be:	6887      	ldr	r7, [r0, #8]
 80025c0:	ea07 0e0c 	and.w	lr, r7, ip
 80025c4:	68cf      	ldr	r7, [r1, #12]
 80025c6:	fa07 f708 	lsl.w	r7, r7, r8
 80025ca:	ea47 070e 	orr.w	r7, r7, lr
 80025ce:	6087      	str	r7, [r0, #8]
 80025d0:	6847      	ldr	r7, [r0, #4]
 80025d2:	ea27 0e06 	bic.w	lr, r7, r6
 80025d6:	f3c5 1700 	ubfx	r7, r5, #4, #1
 80025da:	409f      	lsls	r7, r3
 80025dc:	ea47 070e 	orr.w	r7, r7, lr
 80025e0:	6047      	str	r7, [r0, #4]
 80025e2:	68c7      	ldr	r7, [r0, #12]
 80025e4:	ea07 0e0c 	and.w	lr, r7, ip
 80025e8:	688f      	ldr	r7, [r1, #8]
 80025ea:	fa07 f708 	lsl.w	r7, r7, r8
 80025ee:	ea47 070e 	orr.w	r7, r7, lr
 80025f2:	2c02      	cmp	r4, #2
 80025f4:	60c7      	str	r7, [r0, #12]
 80025f6:	d119      	bne.n	800262c <HAL_GPIO_Init+0xa4>
 80025f8:	ea4f 0ad3 	mov.w	sl, r3, lsr #3
 80025fc:	eb00 0a8a 	add.w	sl, r0, sl, lsl #2
 8002600:	f003 0b07 	and.w	fp, r3, #7
 8002604:	f8da 7020 	ldr.w	r7, [sl, #32]
 8002608:	ea4f 0b8b 	mov.w	fp, fp, lsl #2
 800260c:	f04f 0e0f 	mov.w	lr, #15
 8002610:	fa0e fe0b 	lsl.w	lr, lr, fp
 8002614:	ea27 0e0e 	bic.w	lr, r7, lr
 8002618:	690f      	ldr	r7, [r1, #16]
 800261a:	fa07 f70b 	lsl.w	r7, r7, fp
 800261e:	ea47 070e 	orr.w	r7, r7, lr
 8002622:	f8ca 7020 	str.w	r7, [sl, #32]
 8002626:	e001      	b.n	800262c <HAL_GPIO_Init+0xa4>
 8002628:	2c03      	cmp	r4, #3
 800262a:	d1da      	bne.n	80025e2 <HAL_GPIO_Init+0x5a>
 800262c:	6807      	ldr	r7, [r0, #0]
 800262e:	fa04 f408 	lsl.w	r4, r4, r8
 8002632:	ea07 070c 	and.w	r7, r7, ip
 8002636:	433c      	orrs	r4, r7
 8002638:	f415 3f40 	tst.w	r5, #196608	@ 0x30000
 800263c:	6004      	str	r4, [r0, #0]
 800263e:	d054      	beq.n	80026ea <HAL_GPIO_Init+0x162>
 8002640:	2400      	movs	r4, #0
 8002642:	9401      	str	r4, [sp, #4]
 8002644:	f8d9 4044 	ldr.w	r4, [r9, #68]	@ 0x44
 8002648:	f444 4480 	orr.w	r4, r4, #16384	@ 0x4000
 800264c:	f8c9 4044 	str.w	r4, [r9, #68]	@ 0x44
 8002650:	f8d9 4044 	ldr.w	r4, [r9, #68]	@ 0x44
 8002654:	f023 0703 	bic.w	r7, r3, #3
 8002658:	f107 4780 	add.w	r7, r7, #1073741824	@ 0x40000000
 800265c:	f404 4480 	and.w	r4, r4, #16384	@ 0x4000
 8002660:	f507 379c 	add.w	r7, r7, #79872	@ 0x13800
 8002664:	9401      	str	r4, [sp, #4]
 8002666:	f003 0c03 	and.w	ip, r3, #3
 800266a:	9c01      	ldr	r4, [sp, #4]
 800266c:	f8d7 e008 	ldr.w	lr, [r7, #8]
 8002670:	ea4f 0c8c 	mov.w	ip, ip, lsl #2
 8002674:	240f      	movs	r4, #15
 8002676:	fa04 f40c 	lsl.w	r4, r4, ip
 800267a:	ea2e 0e04 	bic.w	lr, lr, r4
 800267e:	4c23      	ldr	r4, [pc, #140]	@ (800270c <HAL_GPIO_Init+0x184>)
 8002680:	42a0      	cmp	r0, r4
 8002682:	d039      	beq.n	80026f8 <HAL_GPIO_Init+0x170>
 8002684:	f504 6480 	add.w	r4, r4, #1024	@ 0x400
 8002688:	42a0      	cmp	r0, r4
 800268a:	d037      	beq.n	80026fc <HAL_GPIO_Init+0x174>
 800268c:	f504 6480 	add.w	r4, r4, #1024	@ 0x400
 8002690:	42a0      	cmp	r0, r4
 8002692:	d035      	beq.n	8002700 <HAL_GPIO_Init+0x178>
 8002694:	f504 6480 	add.w	r4, r4, #1024	@ 0x400
 8002698:	42a0      	cmp	r0, r4
 800269a:	d033      	beq.n	8002704 <HAL_GPIO_Init+0x17c>
 800269c:	f504 6480 	add.w	r4, r4, #1024	@ 0x400
 80026a0:	42a0      	cmp	r0, r4
 80026a2:	bf14      	ite	ne
 80026a4:	2407      	movne	r4, #7
 80026a6:	2404      	moveq	r4, #4
 80026a8:	fa04 f40c 	lsl.w	r4, r4, ip
 80026ac:	ea44 040e 	orr.w	r4, r4, lr
 80026b0:	60bc      	str	r4, [r7, #8]
 80026b2:	6894      	ldr	r4, [r2, #8]
 80026b4:	43f7      	mvns	r7, r6
 80026b6:	f415 1f80 	tst.w	r5, #1048576	@ 0x100000
 80026ba:	bf0c      	ite	eq
 80026bc:	403c      	andeq	r4, r7
 80026be:	4334      	orrne	r4, r6
 80026c0:	6094      	str	r4, [r2, #8]
 80026c2:	68d4      	ldr	r4, [r2, #12]
 80026c4:	f415 1f00 	tst.w	r5, #2097152	@ 0x200000
 80026c8:	bf0c      	ite	eq
 80026ca:	403c      	andeq	r4, r7
 80026cc:	4334      	orrne	r4, r6
 80026ce:	60d4      	str	r4, [r2, #12]
 80026d0:	6854      	ldr	r4, [r2, #4]
 80026d2:	f415 3f00 	tst.w	r5, #131072	@ 0x20000
 80026d6:	bf0c      	ite	eq
 80026d8:	403c      	andeq	r4, r7
 80026da:	4334      	orrne	r4, r6
 80026dc:	6054      	str	r4, [r2, #4]
 80026de:	6814      	ldr	r4, [r2, #0]
 80026e0:	03ed      	lsls	r5, r5, #15
 80026e2:	bf54      	ite	pl
 80026e4:	403c      	andpl	r4, r7
 80026e6:	4334      	orrmi	r4, r6
 80026e8:	6014      	str	r4, [r2, #0]
 80026ea:	3301      	adds	r3, #1
 80026ec:	2b10      	cmp	r3, #16
 80026ee:	f47f af51 	bne.w	8002594 <HAL_GPIO_Init+0xc>
 80026f2:	b003      	add	sp, #12
 80026f4:	e8bd 8ff0 	ldmia.w	sp!, {r4, r5, r6, r7, r8, r9, sl, fp, pc}
 80026f8:	2400      	movs	r4, #0
 80026fa:	e7d5      	b.n	80026a8 <HAL_GPIO_Init+0x120>
 80026fc:	2401      	movs	r4, #1
 80026fe:	e7d3      	b.n	80026a8 <HAL_GPIO_Init+0x120>
 8002700:	2402      	movs	r4, #2
 8002702:	e7d1      	b.n	80026a8 <HAL_GPIO_Init+0x120>
 8002704:	2403      	movs	r4, #3
 8002706:	e7cf      	b.n	80026a8 <HAL_GPIO_Init+0x120>
 8002708:	40013c00 	.word	0x40013c00
 800270c:	40020000 	.word	0x40020000
 8002710:	40023800 	.word	0x40023800

08002714 <HAL_GPIO_WritePin>:
 8002714:	b10a      	cbz	r2, 800271a <HAL_GPIO_WritePin+0x6>
 8002716:	6181      	str	r1, [r0, #24]
 8002718:	4770      	bx	lr
 800271a:	0409      	lsls	r1, r1, #16
 800271c:	e7fb      	b.n	8002716 <HAL_GPIO_WritePin+0x2>

0800271e <I2C_IsAcknowledgeFailed>:
 800271e:	6801      	ldr	r1, [r0, #0]
 8002720:	694b      	ldr	r3, [r1, #20]
 8002722:	f413 6380 	ands.w	r3, r3, #1024	@ 0x400
 8002726:	f04f 0200 	mov.w	r2, #0
 800272a:	d010      	beq.n	800274e <I2C_IsAcknowledgeFailed+0x30>
 800272c:	f46f 6380 	mvn.w	r3, #1024	@ 0x400
 8002730:	614b      	str	r3, [r1, #20]
 8002732:	2320      	movs	r3, #32
 8002734:	6302      	str	r2, [r0, #48]	@ 0x30
 8002736:	f880 303d 	strb.w	r3, [r0, #61]	@ 0x3d
 800273a:	f880 203e 	strb.w	r2, [r0, #62]	@ 0x3e
 800273e:	6c03      	ldr	r3, [r0, #64]	@ 0x40
 8002740:	f880 203c 	strb.w	r2, [r0, #60]	@ 0x3c
 8002744:	f043 0304 	orr.w	r3, r3, #4
 8002748:	6403      	str	r3, [r0, #64]	@ 0x40
 800274a:	2001      	movs	r0, #1
 800274c:	4770      	bx	lr
 800274e:	4618      	mov	r0, r3
 8002750:	4770      	bx	lr

08002752 <I2C_WaitOnFlagUntilTimeout>:
 8002752:	e92d 46f8 	stmdb	sp!, {r3, r4, r5, r6, r7, r9, sl, lr}
 8002756:	4606      	mov	r6, r0
 8002758:	460f      	mov	r7, r1
 800275a:	4691      	mov	r9, r2
 800275c:	461d      	mov	r5, r3
 800275e:	ea4f 4a11 	mov.w	sl, r1, lsr #16
 8002762:	6833      	ldr	r3, [r6, #0]
 8002764:	f1ba 0f01 	cmp.w	sl, #1
 8002768:	bf0c      	ite	eq
 800276a:	695c      	ldreq	r4, [r3, #20]
 800276c:	699c      	ldrne	r4, [r3, #24]
 800276e:	ea27 0404 	bic.w	r4, r7, r4
 8002772:	b2a4      	uxth	r4, r4
 8002774:	fab4 f484 	clz	r4, r4
 8002778:	0964      	lsrs	r4, r4, #5
 800277a:	45a1      	cmp	r9, r4
 800277c:	d001      	beq.n	8002782 <I2C_WaitOnFlagUntilTimeout+0x30>
 800277e:	2000      	movs	r0, #0
 8002780:	e025      	b.n	80027ce <I2C_WaitOnFlagUntilTimeout+0x7c>
 8002782:	1c6a      	adds	r2, r5, #1
 8002784:	d0ee      	beq.n	8002764 <I2C_WaitOnFlagUntilTimeout+0x12>
 8002786:	f7ff fe2d 	bl	80023e4 <HAL_GetTick>
 800278a:	9b08      	ldr	r3, [sp, #32]
 800278c:	1ac0      	subs	r0, r0, r3
 800278e:	42a8      	cmp	r0, r5
 8002790:	d801      	bhi.n	8002796 <I2C_WaitOnFlagUntilTimeout+0x44>
 8002792:	2d00      	cmp	r5, #0
 8002794:	d1e5      	bne.n	8002762 <I2C_WaitOnFlagUntilTimeout+0x10>
 8002796:	6833      	ldr	r3, [r6, #0]
 8002798:	f1ba 0f01 	cmp.w	sl, #1
 800279c:	bf0c      	ite	eq
 800279e:	695b      	ldreq	r3, [r3, #20]
 80027a0:	699b      	ldrne	r3, [r3, #24]
 80027a2:	ea27 0303 	bic.w	r3, r7, r3
 80027a6:	b29b      	uxth	r3, r3
 80027a8:	fab3 f383 	clz	r3, r3
 80027ac:	095b      	lsrs	r3, r3, #5
 80027ae:	4599      	cmp	r9, r3
 80027b0:	d1d7      	bne.n	8002762 <I2C_WaitOnFlagUntilTimeout+0x10>
 80027b2:	2300      	movs	r3, #0
 80027b4:	2220      	movs	r2, #32
 80027b6:	6333      	str	r3, [r6, #48]	@ 0x30
 80027b8:	f886 203d 	strb.w	r2, [r6, #61]	@ 0x3d
 80027bc:	f886 303e 	strb.w	r3, [r6, #62]	@ 0x3e
 80027c0:	6c32      	ldr	r2, [r6, #64]	@ 0x40
 80027c2:	f886 303c 	strb.w	r3, [r6, #60]	@ 0x3c
 80027c6:	f042 0220 	orr.w	r2, r2, #32
 80027ca:	6432      	str	r2, [r6, #64]	@ 0x40
 80027cc:	2001      	movs	r0, #1
 80027ce:	e8bd 86f8 	ldmia.w	sp!, {r3, r4, r5, r6, r7, r9, sl, pc}

080027d2 <I2C_WaitOnMasterAddressFlagUntilTimeout>:
 80027d2:	e92d 41f0 	stmdb	sp!, {r4, r5, r6, r7, r8, lr}
 80027d6:	4604      	mov	r4, r0
 80027d8:	460f      	mov	r7, r1
 80027da:	4616      	mov	r6, r2
 80027dc:	4698      	mov	r8, r3
 80027de:	6825      	ldr	r5, [r4, #0]
 80027e0:	6968      	ldr	r0, [r5, #20]
 80027e2:	ea27 0000 	bic.w	r0, r7, r0
 80027e6:	b280      	uxth	r0, r0
 80027e8:	b1c0      	cbz	r0, 800281c <I2C_WaitOnMasterAddressFlagUntilTimeout+0x4a>
 80027ea:	696b      	ldr	r3, [r5, #20]
 80027ec:	055a      	lsls	r2, r3, #21
 80027ee:	d517      	bpl.n	8002820 <I2C_WaitOnMasterAddressFlagUntilTimeout+0x4e>
 80027f0:	682b      	ldr	r3, [r5, #0]
 80027f2:	f443 7300 	orr.w	r3, r3, #512	@ 0x200
 80027f6:	602b      	str	r3, [r5, #0]
 80027f8:	f46f 6380 	mvn.w	r3, #1024	@ 0x400
 80027fc:	616b      	str	r3, [r5, #20]
 80027fe:	2220      	movs	r2, #32
 8002800:	2300      	movs	r3, #0
 8002802:	6323      	str	r3, [r4, #48]	@ 0x30
 8002804:	f884 203d 	strb.w	r2, [r4, #61]	@ 0x3d
 8002808:	f884 303e 	strb.w	r3, [r4, #62]	@ 0x3e
 800280c:	6c23      	ldr	r3, [r4, #64]	@ 0x40
 800280e:	f043 0304 	orr.w	r3, r3, #4
 8002812:	6423      	str	r3, [r4, #64]	@ 0x40
 8002814:	2300      	movs	r3, #0
 8002816:	f884 303c 	strb.w	r3, [r4, #60]	@ 0x3c
 800281a:	2001      	movs	r0, #1
 800281c:	e8bd 81f0 	ldmia.w	sp!, {r4, r5, r6, r7, r8, pc}
 8002820:	1c73      	adds	r3, r6, #1
 8002822:	d0dd      	beq.n	80027e0 <I2C_WaitOnMasterAddressFlagUntilTimeout+0xe>
 8002824:	f7ff fdde 	bl	80023e4 <HAL_GetTick>
 8002828:	eba0 0008 	sub.w	r0, r0, r8
 800282c:	42b0      	cmp	r0, r6
 800282e:	d801      	bhi.n	8002834 <I2C_WaitOnMasterAddressFlagUntilTimeout+0x62>
 8002830:	2e00      	cmp	r6, #0
 8002832:	d1d4      	bne.n	80027de <I2C_WaitOnMasterAddressFlagUntilTimeout+0xc>
 8002834:	6823      	ldr	r3, [r4, #0]
 8002836:	695a      	ldr	r2, [r3, #20]
 8002838:	ea27 0202 	bic.w	r2, r7, r2
 800283c:	b292      	uxth	r2, r2
 800283e:	2a00      	cmp	r2, #0
 8002840:	d0cd      	beq.n	80027de <I2C_WaitOnMasterAddressFlagUntilTimeout+0xc>
 8002842:	2300      	movs	r3, #0
 8002844:	2220      	movs	r2, #32
 8002846:	6323      	str	r3, [r4, #48]	@ 0x30
 8002848:	f884 203d 	strb.w	r2, [r4, #61]	@ 0x3d
 800284c:	f884 303e 	strb.w	r3, [r4, #62]	@ 0x3e
 8002850:	6c23      	ldr	r3, [r4, #64]	@ 0x40
 8002852:	4313      	orrs	r3, r2
 8002854:	e7dd      	b.n	8002812 <I2C_WaitOnMasterAddressFlagUntilTimeout+0x40>

08002856 <I2C_WaitOnTXEFlagUntilTimeout>:
 8002856:	b570      	push	{r4, r5, r6, lr}
 8002858:	4604      	mov	r4, r0
 800285a:	460d      	mov	r5, r1
 800285c:	4616      	mov	r6, r2
 800285e:	6823      	ldr	r3, [r4, #0]
 8002860:	695b      	ldr	r3, [r3, #20]
 8002862:	061b      	lsls	r3, r3, #24
 8002864:	d501      	bpl.n	800286a <I2C_WaitOnTXEFlagUntilTimeout+0x14>
 8002866:	2000      	movs	r0, #0
 8002868:	e01e      	b.n	80028a8 <I2C_WaitOnTXEFlagUntilTimeout+0x52>
 800286a:	4620      	mov	r0, r4
 800286c:	f7ff ff57 	bl	800271e <I2C_IsAcknowledgeFailed>
 8002870:	b9c8      	cbnz	r0, 80028a6 <I2C_WaitOnTXEFlagUntilTimeout+0x50>
 8002872:	1c6a      	adds	r2, r5, #1
 8002874:	d0f3      	beq.n	800285e <I2C_WaitOnTXEFlagUntilTimeout+0x8>
 8002876:	f7ff fdb5 	bl	80023e4 <HAL_GetTick>
 800287a:	1b80      	subs	r0, r0, r6
 800287c:	42a8      	cmp	r0, r5
 800287e:	d801      	bhi.n	8002884 <I2C_WaitOnTXEFlagUntilTimeout+0x2e>
 8002880:	2d00      	cmp	r5, #0
 8002882:	d1ec      	bne.n	800285e <I2C_WaitOnTXEFlagUntilTimeout+0x8>
 8002884:	6823      	ldr	r3, [r4, #0]
 8002886:	695b      	ldr	r3, [r3, #20]
 8002888:	f013 0380 	ands.w	r3, r3, #128	@ 0x80
 800288c:	d1e7      	bne.n	800285e <I2C_WaitOnTXEFlagUntilTimeout+0x8>
 800288e:	2220      	movs	r2, #32
 8002890:	6323      	str	r3, [r4, #48]	@ 0x30
 8002892:	f884 203d 	strb.w	r2, [r4, #61]	@ 0x3d
 8002896:	f884 303e 	strb.w	r3, [r4, #62]	@ 0x3e
 800289a:	6c22      	ldr	r2, [r4, #64]	@ 0x40
 800289c:	f884 303c 	strb.w	r3, [r4, #60]	@ 0x3c
 80028a0:	f042 0220 	orr.w	r2, r2, #32
 80028a4:	6422      	str	r2, [r4, #64]	@ 0x40
 80028a6:	2001      	movs	r0, #1
 80028a8:	bd70      	pop	{r4, r5, r6, pc}
	...

080028ac <I2C_RequestMemoryWrite>:
 80028ac:	e92d 43f0 	stmdb	sp!, {r4, r5, r6, r7, r8, r9, lr}
 80028b0:	4615      	mov	r5, r2
 80028b2:	6802      	ldr	r2, [r0, #0]
 80028b4:	b085      	sub	sp, #20
 80028b6:	e9dd 780c 	ldrd	r7, r8, [sp, #48]	@ 0x30
 80028ba:	4699      	mov	r9, r3
 80028bc:	6813      	ldr	r3, [r2, #0]
 80028be:	f443 7380 	orr.w	r3, r3, #256	@ 0x100
 80028c2:	6013      	str	r3, [r2, #0]
 80028c4:	460e      	mov	r6, r1
 80028c6:	463b      	mov	r3, r7
 80028c8:	f8cd 8000 	str.w	r8, [sp]
 80028cc:	2200      	movs	r2, #0
 80028ce:	f04f 1101 	mov.w	r1, #65537	@ 0x10001
 80028d2:	4604      	mov	r4, r0
 80028d4:	f7ff ff3d 	bl	8002752 <I2C_WaitOnFlagUntilTimeout>
 80028d8:	6823      	ldr	r3, [r4, #0]
 80028da:	b138      	cbz	r0, 80028ec <I2C_RequestMemoryWrite+0x40>
 80028dc:	681b      	ldr	r3, [r3, #0]
 80028de:	05db      	lsls	r3, r3, #23
 80028e0:	d502      	bpl.n	80028e8 <I2C_RequestMemoryWrite+0x3c>
 80028e2:	f44f 7300 	mov.w	r3, #512	@ 0x200
 80028e6:	6423      	str	r3, [r4, #64]	@ 0x40
 80028e8:	2603      	movs	r6, #3
 80028ea:	e020      	b.n	800292e <I2C_RequestMemoryWrite+0x82>
 80028ec:	f006 06fe 	and.w	r6, r6, #254	@ 0xfe
 80028f0:	611e      	str	r6, [r3, #16]
 80028f2:	491a      	ldr	r1, [pc, #104]	@ (800295c <I2C_RequestMemoryWrite+0xb0>)
 80028f4:	4643      	mov	r3, r8
 80028f6:	463a      	mov	r2, r7
 80028f8:	4620      	mov	r0, r4
 80028fa:	f7ff ff6a 	bl	80027d2 <I2C_WaitOnMasterAddressFlagUntilTimeout>
 80028fe:	b9a8      	cbnz	r0, 800292c <I2C_RequestMemoryWrite+0x80>
 8002900:	6823      	ldr	r3, [r4, #0]
 8002902:	9003      	str	r0, [sp, #12]
 8002904:	695a      	ldr	r2, [r3, #20]
 8002906:	9203      	str	r2, [sp, #12]
 8002908:	699b      	ldr	r3, [r3, #24]
 800290a:	9303      	str	r3, [sp, #12]
 800290c:	4642      	mov	r2, r8
 800290e:	4639      	mov	r1, r7
 8002910:	4620      	mov	r0, r4
 8002912:	9b03      	ldr	r3, [sp, #12]
 8002914:	f7ff ff9f 	bl	8002856 <I2C_WaitOnTXEFlagUntilTimeout>
 8002918:	4606      	mov	r6, r0
 800291a:	b160      	cbz	r0, 8002936 <I2C_RequestMemoryWrite+0x8a>
 800291c:	6c23      	ldr	r3, [r4, #64]	@ 0x40
 800291e:	2b04      	cmp	r3, #4
 8002920:	bf01      	itttt	eq
 8002922:	6822      	ldreq	r2, [r4, #0]
 8002924:	6813      	ldreq	r3, [r2, #0]
 8002926:	f443 7300 	orreq.w	r3, r3, #512	@ 0x200
 800292a:	6013      	streq	r3, [r2, #0]
 800292c:	2601      	movs	r6, #1
 800292e:	4630      	mov	r0, r6
 8002930:	b005      	add	sp, #20
 8002932:	e8bd 83f0 	ldmia.w	sp!, {r4, r5, r6, r7, r8, r9, pc}
 8002936:	f1b9 0f01 	cmp.w	r9, #1
 800293a:	6823      	ldr	r3, [r4, #0]
 800293c:	d102      	bne.n	8002944 <I2C_RequestMemoryWrite+0x98>
 800293e:	b2ed      	uxtb	r5, r5
 8002940:	611d      	str	r5, [r3, #16]
 8002942:	e7f4      	b.n	800292e <I2C_RequestMemoryWrite+0x82>
 8002944:	0a2a      	lsrs	r2, r5, #8
 8002946:	611a      	str	r2, [r3, #16]
 8002948:	4639      	mov	r1, r7
 800294a:	4642      	mov	r2, r8
 800294c:	4620      	mov	r0, r4
 800294e:	f7ff ff82 	bl	8002856 <I2C_WaitOnTXEFlagUntilTimeout>
 8002952:	2800      	cmp	r0, #0
 8002954:	d1e2      	bne.n	800291c <I2C_RequestMemoryWrite+0x70>
 8002956:	6823      	ldr	r3, [r4, #0]
 8002958:	e7f1      	b.n	800293e <I2C_RequestMemoryWrite+0x92>
 800295a:	bf00      	nop
 800295c:	00010002 	.word	0x00010002

08002960 <I2C_RequestMemoryRead>:
 8002960:	e92d 47ff 	stmdb	sp!, {r0, r1, r2, r3, r4, r5, r6, r7, r8, r9, sl, lr}
 8002964:	469a      	mov	sl, r3
 8002966:	6803      	ldr	r3, [r0, #0]
 8002968:	4615      	mov	r5, r2
 800296a:	681a      	ldr	r2, [r3, #0]
 800296c:	f442 6280 	orr.w	r2, r2, #1024	@ 0x400
 8002970:	601a      	str	r2, [r3, #0]
 8002972:	681a      	ldr	r2, [r3, #0]
 8002974:	e9dd 780c 	ldrd	r7, r8, [sp, #48]	@ 0x30
 8002978:	f442 7280 	orr.w	r2, r2, #256	@ 0x100
 800297c:	601a      	str	r2, [r3, #0]
 800297e:	460e      	mov	r6, r1
 8002980:	463b      	mov	r3, r7
 8002982:	f8cd 8000 	str.w	r8, [sp]
 8002986:	2200      	movs	r2, #0
 8002988:	f04f 1101 	mov.w	r1, #65537	@ 0x10001
 800298c:	4604      	mov	r4, r0
 800298e:	f7ff fee0 	bl	8002752 <I2C_WaitOnFlagUntilTimeout>
 8002992:	6823      	ldr	r3, [r4, #0]
 8002994:	b138      	cbz	r0, 80029a6 <I2C_RequestMemoryRead+0x46>
 8002996:	681b      	ldr	r3, [r3, #0]
 8002998:	05db      	lsls	r3, r3, #23
 800299a:	bf44      	itt	mi
 800299c:	f44f 7300 	movmi.w	r3, #512	@ 0x200
 80029a0:	6423      	strmi	r3, [r4, #64]	@ 0x40
 80029a2:	2003      	movs	r0, #3
 80029a4:	e021      	b.n	80029ea <I2C_RequestMemoryRead+0x8a>
 80029a6:	fa5f f986 	uxtb.w	r9, r6
 80029aa:	f006 06fe 	and.w	r6, r6, #254	@ 0xfe
 80029ae:	611e      	str	r6, [r3, #16]
 80029b0:	492b      	ldr	r1, [pc, #172]	@ (8002a60 <I2C_RequestMemoryRead+0x100>)
 80029b2:	4643      	mov	r3, r8
 80029b4:	463a      	mov	r2, r7
 80029b6:	4620      	mov	r0, r4
 80029b8:	f7ff ff0b 	bl	80027d2 <I2C_WaitOnMasterAddressFlagUntilTimeout>
 80029bc:	b9a0      	cbnz	r0, 80029e8 <I2C_RequestMemoryRead+0x88>
 80029be:	6823      	ldr	r3, [r4, #0]
 80029c0:	9003      	str	r0, [sp, #12]
 80029c2:	695a      	ldr	r2, [r3, #20]
 80029c4:	9203      	str	r2, [sp, #12]
 80029c6:	699b      	ldr	r3, [r3, #24]
 80029c8:	9303      	str	r3, [sp, #12]
 80029ca:	4642      	mov	r2, r8
 80029cc:	4639      	mov	r1, r7
 80029ce:	4620      	mov	r0, r4
 80029d0:	9b03      	ldr	r3, [sp, #12]
 80029d2:	f7ff ff40 	bl	8002856 <I2C_WaitOnTXEFlagUntilTimeout>
 80029d6:	b158      	cbz	r0, 80029f0 <I2C_RequestMemoryRead+0x90>
 80029d8:	6c23      	ldr	r3, [r4, #64]	@ 0x40
 80029da:	2b04      	cmp	r3, #4
 80029dc:	bf01      	itttt	eq
 80029de:	6822      	ldreq	r2, [r4, #0]
 80029e0:	6813      	ldreq	r3, [r2, #0]
 80029e2:	f443 7300 	orreq.w	r3, r3, #512	@ 0x200
 80029e6:	6013      	streq	r3, [r2, #0]
 80029e8:	2001      	movs	r0, #1
 80029ea:	b004      	add	sp, #16
 80029ec:	e8bd 87f0 	ldmia.w	sp!, {r4, r5, r6, r7, r8, r9, sl, pc}
 80029f0:	f1ba 0f01 	cmp.w	sl, #1
 80029f4:	6823      	ldr	r3, [r4, #0]
 80029f6:	d11a      	bne.n	8002a2e <I2C_RequestMemoryRead+0xce>
 80029f8:	b2ed      	uxtb	r5, r5
 80029fa:	4642      	mov	r2, r8
 80029fc:	611d      	str	r5, [r3, #16]
 80029fe:	4639      	mov	r1, r7
 8002a00:	4620      	mov	r0, r4
 8002a02:	f7ff ff28 	bl	8002856 <I2C_WaitOnTXEFlagUntilTimeout>
 8002a06:	4602      	mov	r2, r0
 8002a08:	2800      	cmp	r0, #0
 8002a0a:	d1e5      	bne.n	80029d8 <I2C_RequestMemoryRead+0x78>
 8002a0c:	6821      	ldr	r1, [r4, #0]
 8002a0e:	680b      	ldr	r3, [r1, #0]
 8002a10:	f443 7380 	orr.w	r3, r3, #256	@ 0x100
 8002a14:	600b      	str	r3, [r1, #0]
 8002a16:	4620      	mov	r0, r4
 8002a18:	f8cd 8000 	str.w	r8, [sp]
 8002a1c:	463b      	mov	r3, r7
 8002a1e:	f04f 1101 	mov.w	r1, #65537	@ 0x10001
 8002a22:	f7ff fe96 	bl	8002752 <I2C_WaitOnFlagUntilTimeout>
 8002a26:	6822      	ldr	r2, [r4, #0]
 8002a28:	b160      	cbz	r0, 8002a44 <I2C_RequestMemoryRead+0xe4>
 8002a2a:	6813      	ldr	r3, [r2, #0]
 8002a2c:	e7b4      	b.n	8002998 <I2C_RequestMemoryRead+0x38>
 8002a2e:	0a2a      	lsrs	r2, r5, #8
 8002a30:	611a      	str	r2, [r3, #16]
 8002a32:	4639      	mov	r1, r7
 8002a34:	4642      	mov	r2, r8
 8002a36:	4620      	mov	r0, r4
 8002a38:	f7ff ff0d 	bl	8002856 <I2C_WaitOnTXEFlagUntilTimeout>
 8002a3c:	2800      	cmp	r0, #0
 8002a3e:	d1cb      	bne.n	80029d8 <I2C_RequestMemoryRead+0x78>
 8002a40:	6823      	ldr	r3, [r4, #0]
 8002a42:	e7d9      	b.n	80029f8 <I2C_RequestMemoryRead+0x98>
 8002a44:	f049 0301 	orr.w	r3, r9, #1
 8002a48:	6113      	str	r3, [r2, #16]
 8002a4a:	4905      	ldr	r1, [pc, #20]	@ (8002a60 <I2C_RequestMemoryRead+0x100>)
 8002a4c:	4643      	mov	r3, r8
 8002a4e:	463a      	mov	r2, r7
 8002a50:	4620      	mov	r0, r4
 8002a52:	f7ff febe 	bl	80027d2 <I2C_WaitOnMasterAddressFlagUntilTimeout>
 8002a56:	3800      	subs	r0, #0
 8002a58:	bf18      	it	ne
 8002a5a:	2001      	movne	r0, #1
 8002a5c:	e7c5      	b.n	80029ea <I2C_RequestMemoryRead+0x8a>
 8002a5e:	bf00      	nop
 8002a60:	00010002 	.word	0x00010002

08002a64 <I2C_WaitOnBTFFlagUntilTimeout>:
 8002a64:	b570      	push	{r4, r5, r6, lr}
 8002a66:	4604      	mov	r4, r0
 8002a68:	460d      	mov	r5, r1
 8002a6a:	4616      	mov	r6, r2
 8002a6c:	6823      	ldr	r3, [r4, #0]
 8002a6e:	695b      	ldr	r3, [r3, #20]
 8002a70:	075b      	lsls	r3, r3, #29
 8002a72:	d501      	bpl.n	8002a78 <I2C_WaitOnBTFFlagUntilTimeout+0x14>
 8002a74:	2000      	movs	r0, #0
 8002a76:	e01e      	b.n	8002ab6 <I2C_WaitOnBTFFlagUntilTimeout+0x52>
 8002a78:	4620      	mov	r0, r4
 8002a7a:	f7ff fe50 	bl	800271e <I2C_IsAcknowledgeFailed>
 8002a7e:	b9c8      	cbnz	r0, 8002ab4 <I2C_WaitOnBTFFlagUntilTimeout+0x50>
 8002a80:	1c6a      	adds	r2, r5, #1
 8002a82:	d0f3      	beq.n	8002a6c <I2C_WaitOnBTFFlagUntilTimeout+0x8>
 8002a84:	f7ff fcae 	bl	80023e4 <HAL_GetTick>
 8002a88:	1b80      	subs	r0, r0, r6
 8002a8a:	42a8      	cmp	r0, r5
 8002a8c:	d801      	bhi.n	8002a92 <I2C_WaitOnBTFFlagUntilTimeout+0x2e>
 8002a8e:	2d00      	cmp	r5, #0
 8002a90:	d1ec      	bne.n	8002a6c <I2C_WaitOnBTFFlagUntilTimeout+0x8>
 8002a92:	6823      	ldr	r3, [r4, #0]
 8002a94:	695b      	ldr	r3, [r3, #20]
 8002a96:	f013 0304 	ands.w	r3, r3, #4
 8002a9a:	d1e7      	bne.n	8002a6c <I2C_WaitOnBTFFlagUntilTimeout+0x8>
 8002a9c:	2220      	movs	r2, #32
 8002a9e:	6323      	str	r3, [r4, #48]	@ 0x30
 8002aa0:	f884 203d 	strb.w	r2, [r4, #61]	@ 0x3d
 8002aa4:	f884 303e 	strb.w	r3, [r4, #62]	@ 0x3e
 8002aa8:	6c22      	ldr	r2, [r4, #64]	@ 0x40
 8002aaa:	f884 303c 	strb.w	r3, [r4, #60]	@ 0x3c
 8002aae:	f042 0220 	orr.w	r2, r2, #32
 8002ab2:	6422      	str	r2, [r4, #64]	@ 0x40
 8002ab4:	2001      	movs	r0, #1
 8002ab6:	bd70      	pop	{r4, r5, r6, pc}

08002ab8 <I2C_WaitOnRXNEFlagUntilTimeout>:
 8002ab8:	b570      	push	{r4, r5, r6, lr}
 8002aba:	4604      	mov	r4, r0
 8002abc:	460d      	mov	r5, r1
 8002abe:	4616      	mov	r6, r2
 8002ac0:	6821      	ldr	r1, [r4, #0]
 8002ac2:	694b      	ldr	r3, [r1, #20]
 8002ac4:	f013 0340 	ands.w	r3, r3, #64	@ 0x40
 8002ac8:	d001      	beq.n	8002ace <I2C_WaitOnRXNEFlagUntilTimeout+0x16>
 8002aca:	2000      	movs	r0, #0
 8002acc:	e011      	b.n	8002af2 <I2C_WaitOnRXNEFlagUntilTimeout+0x3a>
 8002ace:	694a      	ldr	r2, [r1, #20]
 8002ad0:	06d2      	lsls	r2, r2, #27
 8002ad2:	d50f      	bpl.n	8002af4 <I2C_WaitOnRXNEFlagUntilTimeout+0x3c>
 8002ad4:	f06f 0210 	mvn.w	r2, #16
 8002ad8:	614a      	str	r2, [r1, #20]
 8002ada:	2220      	movs	r2, #32
 8002adc:	6323      	str	r3, [r4, #48]	@ 0x30
 8002ade:	f884 203d 	strb.w	r2, [r4, #61]	@ 0x3d
 8002ae2:	f884 303e 	strb.w	r3, [r4, #62]	@ 0x3e
 8002ae6:	6c23      	ldr	r3, [r4, #64]	@ 0x40
 8002ae8:	6423      	str	r3, [r4, #64]	@ 0x40
 8002aea:	2300      	movs	r3, #0
 8002aec:	f884 303c 	strb.w	r3, [r4, #60]	@ 0x3c
 8002af0:	2001      	movs	r0, #1
 8002af2:	bd70      	pop	{r4, r5, r6, pc}
 8002af4:	f7ff fc76 	bl	80023e4 <HAL_GetTick>
 8002af8:	1b80      	subs	r0, r0, r6
 8002afa:	42a8      	cmp	r0, r5
 8002afc:	d801      	bhi.n	8002b02 <I2C_WaitOnRXNEFlagUntilTimeout+0x4a>
 8002afe:	2d00      	cmp	r5, #0
 8002b00:	d1de      	bne.n	8002ac0 <I2C_WaitOnRXNEFlagUntilTimeout+0x8>
 8002b02:	6823      	ldr	r3, [r4, #0]
 8002b04:	695b      	ldr	r3, [r3, #20]
 8002b06:	f013 0340 	ands.w	r3, r3, #64	@ 0x40
 8002b0a:	d1d9      	bne.n	8002ac0 <I2C_WaitOnRXNEFlagUntilTimeout+0x8>
 8002b0c:	2220      	movs	r2, #32
 8002b0e:	6323      	str	r3, [r4, #48]	@ 0x30
 8002b10:	f884 203d 	strb.w	r2, [r4, #61]	@ 0x3d
 8002b14:	f884 303e 	strb.w	r3, [r4, #62]	@ 0x3e
 8002b18:	6c23      	ldr	r3, [r4, #64]	@ 0x40
 8002b1a:	4313      	orrs	r3, r2
 8002b1c:	e7e4      	b.n	8002ae8 <I2C_WaitOnRXNEFlagUntilTimeout+0x30>
	...

08002b20 <HAL_I2C_Init>:
 8002b20:	b570      	push	{r4, r5, r6, lr}
 8002b22:	4604      	mov	r4, r0
 8002b24:	b908      	cbnz	r0, 8002b2a <HAL_I2C_Init+0xa>
 8002b26:	2001      	movs	r0, #1
 8002b28:	bd70      	pop	{r4, r5, r6, pc}
 8002b2a:	f890 303d 	ldrb.w	r3, [r0, #61]	@ 0x3d
 8002b2e:	f003 02ff 	and.w	r2, r3, #255	@ 0xff
 8002b32:	b91b      	cbnz	r3, 8002b3c <HAL_I2C_Init+0x1c>
 8002b34:	f880 203c 	strb.w	r2, [r0, #60]	@ 0x3c
 8002b38:	f7fd ff8e 	bl	8000a58 <HAL_I2C_MspInit>
 8002b3c:	2324      	movs	r3, #36	@ 0x24
 8002b3e:	f884 303d 	strb.w	r3, [r4, #61]	@ 0x3d
 8002b42:	6823      	ldr	r3, [r4, #0]
 8002b44:	681a      	ldr	r2, [r3, #0]
 8002b46:	f022 0201 	bic.w	r2, r2, #1
 8002b4a:	601a      	str	r2, [r3, #0]
 8002b4c:	681a      	ldr	r2, [r3, #0]
 8002b4e:	f442 4200 	orr.w	r2, r2, #32768	@ 0x8000
 8002b52:	601a      	str	r2, [r3, #0]
 8002b54:	681a      	ldr	r2, [r3, #0]
 8002b56:	f422 4200 	bic.w	r2, r2, #32768	@ 0x8000
 8002b5a:	601a      	str	r2, [r3, #0]
 8002b5c:	f000 fc9e 	bl	800349c <HAL_RCC_GetPCLK1Freq>
 8002b60:	4b3f      	ldr	r3, [pc, #252]	@ (8002c60 <HAL_I2C_Init+0x140>)
 8002b62:	6865      	ldr	r5, [r4, #4]
 8002b64:	429d      	cmp	r5, r3
 8002b66:	bf94      	ite	ls
 8002b68:	4b3e      	ldrls	r3, [pc, #248]	@ (8002c64 <HAL_I2C_Init+0x144>)
 8002b6a:	4b3f      	ldrhi	r3, [pc, #252]	@ (8002c68 <HAL_I2C_Init+0x148>)
 8002b6c:	4298      	cmp	r0, r3
 8002b6e:	bf8c      	ite	hi
 8002b70:	2300      	movhi	r3, #0
 8002b72:	2301      	movls	r3, #1
 8002b74:	2b00      	cmp	r3, #0
 8002b76:	d1d6      	bne.n	8002b26 <HAL_I2C_Init+0x6>
 8002b78:	6822      	ldr	r2, [r4, #0]
 8002b7a:	4e39      	ldr	r6, [pc, #228]	@ (8002c60 <HAL_I2C_Init+0x140>)
 8002b7c:	6851      	ldr	r1, [r2, #4]
 8002b7e:	4b3b      	ldr	r3, [pc, #236]	@ (8002c6c <HAL_I2C_Init+0x14c>)
 8002b80:	fbb0 f3f3 	udiv	r3, r0, r3
 8002b84:	f021 013f 	bic.w	r1, r1, #63	@ 0x3f
 8002b88:	4319      	orrs	r1, r3
 8002b8a:	42b5      	cmp	r5, r6
 8002b8c:	6051      	str	r1, [r2, #4]
 8002b8e:	bf88      	it	hi
 8002b90:	f44f 7696 	movhi.w	r6, #300	@ 0x12c
 8002b94:	6a11      	ldr	r1, [r2, #32]
 8002b96:	bf88      	it	hi
 8002b98:	4373      	mulhi	r3, r6
 8002b9a:	f021 013f 	bic.w	r1, r1, #63	@ 0x3f
 8002b9e:	bf84      	itt	hi
 8002ba0:	f44f 767a 	movhi.w	r6, #1000	@ 0x3e8
 8002ba4:	fbb3 f3f6 	udivhi	r3, r3, r6
 8002ba8:	3301      	adds	r3, #1
 8002baa:	430b      	orrs	r3, r1
 8002bac:	6213      	str	r3, [r2, #32]
 8002bae:	69d1      	ldr	r1, [r2, #28]
 8002bb0:	1e43      	subs	r3, r0, #1
 8002bb2:	482b      	ldr	r0, [pc, #172]	@ (8002c60 <HAL_I2C_Init+0x140>)
 8002bb4:	f421 414f 	bic.w	r1, r1, #52992	@ 0xcf00
 8002bb8:	4285      	cmp	r5, r0
 8002bba:	f021 01ff 	bic.w	r1, r1, #255	@ 0xff
 8002bbe:	d832      	bhi.n	8002c26 <HAL_I2C_Init+0x106>
 8002bc0:	006d      	lsls	r5, r5, #1
 8002bc2:	f640 70fc 	movw	r0, #4092	@ 0xffc
 8002bc6:	fbb3 f3f5 	udiv	r3, r3, r5
 8002bca:	3301      	adds	r3, #1
 8002bcc:	4203      	tst	r3, r0
 8002bce:	d042      	beq.n	8002c56 <HAL_I2C_Init+0x136>
 8002bd0:	f3c3 030b 	ubfx	r3, r3, #0, #12
 8002bd4:	4319      	orrs	r1, r3
 8002bd6:	61d1      	str	r1, [r2, #28]
 8002bd8:	e9d4 3007 	ldrd	r3, r0, [r4, #28]
 8002bdc:	6811      	ldr	r1, [r2, #0]
 8002bde:	4303      	orrs	r3, r0
 8002be0:	f021 01c0 	bic.w	r1, r1, #192	@ 0xc0
 8002be4:	430b      	orrs	r3, r1
 8002be6:	6013      	str	r3, [r2, #0]
 8002be8:	6891      	ldr	r1, [r2, #8]
 8002bea:	e9d4 0303 	ldrd	r0, r3, [r4, #12]
 8002bee:	f421 4103 	bic.w	r1, r1, #33536	@ 0x8300
 8002bf2:	4303      	orrs	r3, r0
 8002bf4:	f021 01ff 	bic.w	r1, r1, #255	@ 0xff
 8002bf8:	430b      	orrs	r3, r1
 8002bfa:	6093      	str	r3, [r2, #8]
 8002bfc:	e9d4 3005 	ldrd	r3, r0, [r4, #20]
 8002c00:	68d1      	ldr	r1, [r2, #12]
 8002c02:	4303      	orrs	r3, r0
 8002c04:	f021 01ff 	bic.w	r1, r1, #255	@ 0xff
 8002c08:	430b      	orrs	r3, r1
 8002c0a:	60d3      	str	r3, [r2, #12]
 8002c0c:	6813      	ldr	r3, [r2, #0]
 8002c0e:	f043 0301 	orr.w	r3, r3, #1
 8002c12:	6013      	str	r3, [r2, #0]
 8002c14:	2000      	movs	r0, #0
 8002c16:	2320      	movs	r3, #32
 8002c18:	6420      	str	r0, [r4, #64]	@ 0x40
 8002c1a:	f884 303d 	strb.w	r3, [r4, #61]	@ 0x3d
 8002c1e:	6320      	str	r0, [r4, #48]	@ 0x30
 8002c20:	f884 003e 	strb.w	r0, [r4, #62]	@ 0x3e
 8002c24:	e780      	b.n	8002b28 <HAL_I2C_Init+0x8>
 8002c26:	68a0      	ldr	r0, [r4, #8]
 8002c28:	b950      	cbnz	r0, 8002c40 <HAL_I2C_Init+0x120>
 8002c2a:	eb05 0545 	add.w	r5, r5, r5, lsl #1
 8002c2e:	fbb3 f3f5 	udiv	r3, r3, r5
 8002c32:	3301      	adds	r3, #1
 8002c34:	f3c3 030b 	ubfx	r3, r3, #0, #12
 8002c38:	b17b      	cbz	r3, 8002c5a <HAL_I2C_Init+0x13a>
 8002c3a:	f443 4300 	orr.w	r3, r3, #32768	@ 0x8000
 8002c3e:	e7c9      	b.n	8002bd4 <HAL_I2C_Init+0xb4>
 8002c40:	2019      	movs	r0, #25
 8002c42:	4368      	muls	r0, r5
 8002c44:	fbb3 f3f0 	udiv	r3, r3, r0
 8002c48:	3301      	adds	r3, #1
 8002c4a:	f3c3 030b 	ubfx	r3, r3, #0, #12
 8002c4e:	b123      	cbz	r3, 8002c5a <HAL_I2C_Init+0x13a>
 8002c50:	f443 4340 	orr.w	r3, r3, #49152	@ 0xc000
 8002c54:	e7be      	b.n	8002bd4 <HAL_I2C_Init+0xb4>
 8002c56:	2304      	movs	r3, #4
 8002c58:	e7bc      	b.n	8002bd4 <HAL_I2C_Init+0xb4>
 8002c5a:	2301      	movs	r3, #1
 8002c5c:	e7ba      	b.n	8002bd4 <HAL_I2C_Init+0xb4>
 8002c5e:	bf00      	nop
 8002c60:	000186a0 	.word	0x000186a0
 8002c64:	001e847f 	.word	0x001e847f
 8002c68:	003d08ff 	.word	0x003d08ff
 8002c6c:	000f4240 	.word	0x000f4240

08002c70 <HAL_I2C_Mem_Write>:
 8002c70:	e92d 43f7 	stmdb	sp!, {r0, r1, r2, r4, r5, r6, r7, r8, r9, lr}
 8002c74:	4604      	mov	r4, r0
 8002c76:	4699      	mov	r9, r3
 8002c78:	9e0c      	ldr	r6, [sp, #48]	@ 0x30
 8002c7a:	460f      	mov	r7, r1
 8002c7c:	4690      	mov	r8, r2
 8002c7e:	f7ff fbb1 	bl	80023e4 <HAL_GetTick>
 8002c82:	f894 303d 	ldrb.w	r3, [r4, #61]	@ 0x3d
 8002c86:	2b20      	cmp	r3, #32
 8002c88:	4605      	mov	r5, r0
 8002c8a:	d003      	beq.n	8002c94 <HAL_I2C_Mem_Write+0x24>
 8002c8c:	2002      	movs	r0, #2
 8002c8e:	b003      	add	sp, #12
 8002c90:	e8bd 83f0 	ldmia.w	sp!, {r4, r5, r6, r7, r8, r9, pc}
 8002c94:	9000      	str	r0, [sp, #0]
 8002c96:	493c      	ldr	r1, [pc, #240]	@ (8002d88 <HAL_I2C_Mem_Write+0x118>)
 8002c98:	2319      	movs	r3, #25
 8002c9a:	2201      	movs	r2, #1
 8002c9c:	4620      	mov	r0, r4
 8002c9e:	f7ff fd58 	bl	8002752 <I2C_WaitOnFlagUntilTimeout>
 8002ca2:	2800      	cmp	r0, #0
 8002ca4:	d1f2      	bne.n	8002c8c <HAL_I2C_Mem_Write+0x1c>
 8002ca6:	f894 303c 	ldrb.w	r3, [r4, #60]	@ 0x3c
 8002caa:	2b01      	cmp	r3, #1
 8002cac:	d0ee      	beq.n	8002c8c <HAL_I2C_Mem_Write+0x1c>
 8002cae:	6820      	ldr	r0, [r4, #0]
 8002cb0:	2301      	movs	r3, #1
 8002cb2:	f884 303c 	strb.w	r3, [r4, #60]	@ 0x3c
 8002cb6:	6803      	ldr	r3, [r0, #0]
 8002cb8:	07d9      	lsls	r1, r3, #31
 8002cba:	bf5e      	ittt	pl
 8002cbc:	6803      	ldrpl	r3, [r0, #0]
 8002cbe:	f043 0301 	orrpl.w	r3, r3, #1
 8002cc2:	6003      	strpl	r3, [r0, #0]
 8002cc4:	6803      	ldr	r3, [r0, #0]
 8002cc6:	f423 6300 	bic.w	r3, r3, #2048	@ 0x800
 8002cca:	6003      	str	r3, [r0, #0]
 8002ccc:	2321      	movs	r3, #33	@ 0x21
 8002cce:	f884 303d 	strb.w	r3, [r4, #61]	@ 0x3d
 8002cd2:	2340      	movs	r3, #64	@ 0x40
 8002cd4:	f884 303e 	strb.w	r3, [r4, #62]	@ 0x3e
 8002cd8:	2300      	movs	r3, #0
 8002cda:	6423      	str	r3, [r4, #64]	@ 0x40
 8002cdc:	9b0a      	ldr	r3, [sp, #40]	@ 0x28
 8002cde:	6263      	str	r3, [r4, #36]	@ 0x24
 8002ce0:	f8bd 302c 	ldrh.w	r3, [sp, #44]	@ 0x2c
 8002ce4:	8563      	strh	r3, [r4, #42]	@ 0x2a
 8002ce6:	8d63      	ldrh	r3, [r4, #42]	@ 0x2a
 8002ce8:	8523      	strh	r3, [r4, #40]	@ 0x28
 8002cea:	4b28      	ldr	r3, [pc, #160]	@ (8002d8c <HAL_I2C_Mem_Write+0x11c>)
 8002cec:	62e3      	str	r3, [r4, #44]	@ 0x2c
 8002cee:	4642      	mov	r2, r8
 8002cf0:	e9cd 6500 	strd	r6, r5, [sp]
 8002cf4:	464b      	mov	r3, r9
 8002cf6:	4639      	mov	r1, r7
 8002cf8:	4620      	mov	r0, r4
 8002cfa:	f7ff fdd7 	bl	80028ac <I2C_RequestMemoryWrite>
 8002cfe:	2800      	cmp	r0, #0
 8002d00:	d02a      	beq.n	8002d58 <HAL_I2C_Mem_Write+0xe8>
 8002d02:	2001      	movs	r0, #1
 8002d04:	e7c3      	b.n	8002c8e <HAL_I2C_Mem_Write+0x1e>
 8002d06:	f7ff fda6 	bl	8002856 <I2C_WaitOnTXEFlagUntilTimeout>
 8002d0a:	b140      	cbz	r0, 8002d1e <HAL_I2C_Mem_Write+0xae>
 8002d0c:	6c23      	ldr	r3, [r4, #64]	@ 0x40
 8002d0e:	2b04      	cmp	r3, #4
 8002d10:	bf01      	itttt	eq
 8002d12:	6822      	ldreq	r2, [r4, #0]
 8002d14:	6813      	ldreq	r3, [r2, #0]
 8002d16:	f443 7300 	orreq.w	r3, r3, #512	@ 0x200
 8002d1a:	6013      	streq	r3, [r2, #0]
 8002d1c:	e7f1      	b.n	8002d02 <HAL_I2C_Mem_Write+0x92>
 8002d1e:	6a63      	ldr	r3, [r4, #36]	@ 0x24
 8002d20:	6827      	ldr	r7, [r4, #0]
 8002d22:	461a      	mov	r2, r3
 8002d24:	f812 1b01 	ldrb.w	r1, [r2], #1
 8002d28:	6139      	str	r1, [r7, #16]
 8002d2a:	6262      	str	r2, [r4, #36]	@ 0x24
 8002d2c:	8d62      	ldrh	r2, [r4, #42]	@ 0x2a
 8002d2e:	8d21      	ldrh	r1, [r4, #40]	@ 0x28
 8002d30:	3a01      	subs	r2, #1
 8002d32:	b292      	uxth	r2, r2
 8002d34:	8562      	strh	r2, [r4, #42]	@ 0x2a
 8002d36:	697a      	ldr	r2, [r7, #20]
 8002d38:	1e48      	subs	r0, r1, #1
 8002d3a:	b280      	uxth	r0, r0
 8002d3c:	0752      	lsls	r2, r2, #29
 8002d3e:	8520      	strh	r0, [r4, #40]	@ 0x28
 8002d40:	d50a      	bpl.n	8002d58 <HAL_I2C_Mem_Write+0xe8>
 8002d42:	b148      	cbz	r0, 8002d58 <HAL_I2C_Mem_Write+0xe8>
 8002d44:	785a      	ldrb	r2, [r3, #1]
 8002d46:	613a      	str	r2, [r7, #16]
 8002d48:	3302      	adds	r3, #2
 8002d4a:	6263      	str	r3, [r4, #36]	@ 0x24
 8002d4c:	8d63      	ldrh	r3, [r4, #42]	@ 0x2a
 8002d4e:	3b01      	subs	r3, #1
 8002d50:	3902      	subs	r1, #2
 8002d52:	b29b      	uxth	r3, r3
 8002d54:	8521      	strh	r1, [r4, #40]	@ 0x28
 8002d56:	8563      	strh	r3, [r4, #42]	@ 0x2a
 8002d58:	8d23      	ldrh	r3, [r4, #40]	@ 0x28
 8002d5a:	462a      	mov	r2, r5
 8002d5c:	4631      	mov	r1, r6
 8002d5e:	4620      	mov	r0, r4
 8002d60:	2b00      	cmp	r3, #0
 8002d62:	d1d0      	bne.n	8002d06 <HAL_I2C_Mem_Write+0x96>
 8002d64:	f7ff fe7e 	bl	8002a64 <I2C_WaitOnBTFFlagUntilTimeout>
 8002d68:	2800      	cmp	r0, #0
 8002d6a:	d1cf      	bne.n	8002d0c <HAL_I2C_Mem_Write+0x9c>
 8002d6c:	6822      	ldr	r2, [r4, #0]
 8002d6e:	6813      	ldr	r3, [r2, #0]
 8002d70:	f443 7300 	orr.w	r3, r3, #512	@ 0x200
 8002d74:	6013      	str	r3, [r2, #0]
 8002d76:	2320      	movs	r3, #32
 8002d78:	f884 303d 	strb.w	r3, [r4, #61]	@ 0x3d
 8002d7c:	f884 003c 	strb.w	r0, [r4, #60]	@ 0x3c
 8002d80:	f884 003e 	strb.w	r0, [r4, #62]	@ 0x3e
 8002d84:	e783      	b.n	8002c8e <HAL_I2C_Mem_Write+0x1e>
 8002d86:	bf00      	nop
 8002d88:	00100002 	.word	0x00100002
 8002d8c:	ffff0000 	.word	0xffff0000

08002d90 <HAL_I2C_Mem_Read>:
 8002d90:	e92d 43f0 	stmdb	sp!, {r4, r5, r6, r7, r8, r9, lr}
 8002d94:	4604      	mov	r4, r0
 8002d96:	b087      	sub	sp, #28
 8002d98:	4699      	mov	r9, r3
 8002d9a:	9f10      	ldr	r7, [sp, #64]	@ 0x40
 8002d9c:	460d      	mov	r5, r1
 8002d9e:	4690      	mov	r8, r2
 8002da0:	f7ff fb20 	bl	80023e4 <HAL_GetTick>
 8002da4:	f894 303d 	ldrb.w	r3, [r4, #61]	@ 0x3d
 8002da8:	2b20      	cmp	r3, #32
 8002daa:	4606      	mov	r6, r0
 8002dac:	d004      	beq.n	8002db8 <HAL_I2C_Mem_Read+0x28>
 8002dae:	2502      	movs	r5, #2
 8002db0:	4628      	mov	r0, r5
 8002db2:	b007      	add	sp, #28
 8002db4:	e8bd 83f0 	ldmia.w	sp!, {r4, r5, r6, r7, r8, r9, pc}
 8002db8:	9000      	str	r0, [sp, #0]
 8002dba:	497a      	ldr	r1, [pc, #488]	@ (8002fa4 <HAL_I2C_Mem_Read+0x214>)
 8002dbc:	2319      	movs	r3, #25
 8002dbe:	2201      	movs	r2, #1
 8002dc0:	4620      	mov	r0, r4
 8002dc2:	f7ff fcc6 	bl	8002752 <I2C_WaitOnFlagUntilTimeout>
 8002dc6:	2800      	cmp	r0, #0
 8002dc8:	d1f1      	bne.n	8002dae <HAL_I2C_Mem_Read+0x1e>
 8002dca:	f894 303c 	ldrb.w	r3, [r4, #60]	@ 0x3c
 8002dce:	2b01      	cmp	r3, #1
 8002dd0:	d0ed      	beq.n	8002dae <HAL_I2C_Mem_Read+0x1e>
 8002dd2:	6820      	ldr	r0, [r4, #0]
 8002dd4:	2301      	movs	r3, #1
 8002dd6:	f884 303c 	strb.w	r3, [r4, #60]	@ 0x3c
 8002dda:	6803      	ldr	r3, [r0, #0]
 8002ddc:	07db      	lsls	r3, r3, #31
 8002dde:	bf5e      	ittt	pl
 8002de0:	6803      	ldrpl	r3, [r0, #0]
 8002de2:	f043 0301 	orrpl.w	r3, r3, #1
 8002de6:	6003      	strpl	r3, [r0, #0]
 8002de8:	6803      	ldr	r3, [r0, #0]
 8002dea:	f423 6300 	bic.w	r3, r3, #2048	@ 0x800
 8002dee:	6003      	str	r3, [r0, #0]
 8002df0:	2322      	movs	r3, #34	@ 0x22
 8002df2:	f884 303d 	strb.w	r3, [r4, #61]	@ 0x3d
 8002df6:	2340      	movs	r3, #64	@ 0x40
 8002df8:	f884 303e 	strb.w	r3, [r4, #62]	@ 0x3e
 8002dfc:	2300      	movs	r3, #0
 8002dfe:	6423      	str	r3, [r4, #64]	@ 0x40
 8002e00:	9b0e      	ldr	r3, [sp, #56]	@ 0x38
 8002e02:	6263      	str	r3, [r4, #36]	@ 0x24
 8002e04:	f8bd 303c 	ldrh.w	r3, [sp, #60]	@ 0x3c
 8002e08:	8563      	strh	r3, [r4, #42]	@ 0x2a
 8002e0a:	8d63      	ldrh	r3, [r4, #42]	@ 0x2a
 8002e0c:	8523      	strh	r3, [r4, #40]	@ 0x28
 8002e0e:	4b66      	ldr	r3, [pc, #408]	@ (8002fa8 <HAL_I2C_Mem_Read+0x218>)
 8002e10:	62e3      	str	r3, [r4, #44]	@ 0x2c
 8002e12:	4629      	mov	r1, r5
 8002e14:	e9cd 7600 	strd	r7, r6, [sp]
 8002e18:	464b      	mov	r3, r9
 8002e1a:	4642      	mov	r2, r8
 8002e1c:	4620      	mov	r0, r4
 8002e1e:	f7ff fd9f 	bl	8002960 <I2C_RequestMemoryRead>
 8002e22:	4605      	mov	r5, r0
 8002e24:	b108      	cbz	r0, 8002e2a <HAL_I2C_Mem_Read+0x9a>
 8002e26:	2501      	movs	r5, #1
 8002e28:	e7c2      	b.n	8002db0 <HAL_I2C_Mem_Read+0x20>
 8002e2a:	8d22      	ldrh	r2, [r4, #40]	@ 0x28
 8002e2c:	6823      	ldr	r3, [r4, #0]
 8002e2e:	b9b2      	cbnz	r2, 8002e5e <HAL_I2C_Mem_Read+0xce>
 8002e30:	9002      	str	r0, [sp, #8]
 8002e32:	695a      	ldr	r2, [r3, #20]
 8002e34:	9202      	str	r2, [sp, #8]
 8002e36:	699a      	ldr	r2, [r3, #24]
 8002e38:	9202      	str	r2, [sp, #8]
 8002e3a:	9a02      	ldr	r2, [sp, #8]
 8002e3c:	681a      	ldr	r2, [r3, #0]
 8002e3e:	f442 7200 	orr.w	r2, r2, #512	@ 0x200
 8002e42:	601a      	str	r2, [r3, #0]
 8002e44:	f8df 8164 	ldr.w	r8, [pc, #356]	@ 8002fac <HAL_I2C_Mem_Read+0x21c>
 8002e48:	8d23      	ldrh	r3, [r4, #40]	@ 0x28
 8002e4a:	2b00      	cmp	r3, #0
 8002e4c:	d12c      	bne.n	8002ea8 <HAL_I2C_Mem_Read+0x118>
 8002e4e:	2220      	movs	r2, #32
 8002e50:	f884 203d 	strb.w	r2, [r4, #61]	@ 0x3d
 8002e54:	f884 303c 	strb.w	r3, [r4, #60]	@ 0x3c
 8002e58:	f884 303e 	strb.w	r3, [r4, #62]	@ 0x3e
 8002e5c:	e7a8      	b.n	8002db0 <HAL_I2C_Mem_Read+0x20>
 8002e5e:	2a01      	cmp	r2, #1
 8002e60:	d10a      	bne.n	8002e78 <HAL_I2C_Mem_Read+0xe8>
 8002e62:	681a      	ldr	r2, [r3, #0]
 8002e64:	f422 6280 	bic.w	r2, r2, #1024	@ 0x400
 8002e68:	601a      	str	r2, [r3, #0]
 8002e6a:	9003      	str	r0, [sp, #12]
 8002e6c:	695a      	ldr	r2, [r3, #20]
 8002e6e:	9203      	str	r2, [sp, #12]
 8002e70:	699a      	ldr	r2, [r3, #24]
 8002e72:	9203      	str	r2, [sp, #12]
 8002e74:	9a03      	ldr	r2, [sp, #12]
 8002e76:	e7e1      	b.n	8002e3c <HAL_I2C_Mem_Read+0xac>
 8002e78:	2a02      	cmp	r2, #2
 8002e7a:	d10e      	bne.n	8002e9a <HAL_I2C_Mem_Read+0x10a>
 8002e7c:	681a      	ldr	r2, [r3, #0]
 8002e7e:	f422 6280 	bic.w	r2, r2, #1024	@ 0x400
 8002e82:	601a      	str	r2, [r3, #0]
 8002e84:	681a      	ldr	r2, [r3, #0]
 8002e86:	f442 6200 	orr.w	r2, r2, #2048	@ 0x800
 8002e8a:	601a      	str	r2, [r3, #0]
 8002e8c:	9004      	str	r0, [sp, #16]
 8002e8e:	695a      	ldr	r2, [r3, #20]
 8002e90:	9204      	str	r2, [sp, #16]
 8002e92:	699b      	ldr	r3, [r3, #24]
 8002e94:	9304      	str	r3, [sp, #16]
 8002e96:	9b04      	ldr	r3, [sp, #16]
 8002e98:	e7d4      	b.n	8002e44 <HAL_I2C_Mem_Read+0xb4>
 8002e9a:	9005      	str	r0, [sp, #20]
 8002e9c:	695a      	ldr	r2, [r3, #20]
 8002e9e:	9205      	str	r2, [sp, #20]
 8002ea0:	699b      	ldr	r3, [r3, #24]
 8002ea2:	9305      	str	r3, [sp, #20]
 8002ea4:	9b05      	ldr	r3, [sp, #20]
 8002ea6:	e7cd      	b.n	8002e44 <HAL_I2C_Mem_Read+0xb4>
 8002ea8:	2b03      	cmp	r3, #3
 8002eaa:	d856      	bhi.n	8002f5a <HAL_I2C_Mem_Read+0x1ca>
 8002eac:	2b01      	cmp	r3, #1
 8002eae:	d115      	bne.n	8002edc <HAL_I2C_Mem_Read+0x14c>
 8002eb0:	4632      	mov	r2, r6
 8002eb2:	4639      	mov	r1, r7
 8002eb4:	4620      	mov	r0, r4
 8002eb6:	f7ff fdff 	bl	8002ab8 <I2C_WaitOnRXNEFlagUntilTimeout>
 8002eba:	2800      	cmp	r0, #0
 8002ebc:	d1b3      	bne.n	8002e26 <HAL_I2C_Mem_Read+0x96>
 8002ebe:	6823      	ldr	r3, [r4, #0]
 8002ec0:	691a      	ldr	r2, [r3, #16]
 8002ec2:	6a63      	ldr	r3, [r4, #36]	@ 0x24
 8002ec4:	701a      	strb	r2, [r3, #0]
 8002ec6:	6a63      	ldr	r3, [r4, #36]	@ 0x24
 8002ec8:	3301      	adds	r3, #1
 8002eca:	6263      	str	r3, [r4, #36]	@ 0x24
 8002ecc:	8d23      	ldrh	r3, [r4, #40]	@ 0x28
 8002ece:	3b01      	subs	r3, #1
 8002ed0:	8523      	strh	r3, [r4, #40]	@ 0x28
 8002ed2:	8d63      	ldrh	r3, [r4, #42]	@ 0x2a
 8002ed4:	3b01      	subs	r3, #1
 8002ed6:	b29b      	uxth	r3, r3
 8002ed8:	8563      	strh	r3, [r4, #42]	@ 0x2a
 8002eda:	e7b5      	b.n	8002e48 <HAL_I2C_Mem_Read+0xb8>
 8002edc:	2b02      	cmp	r3, #2
 8002ede:	9600      	str	r6, [sp, #0]
 8002ee0:	463b      	mov	r3, r7
 8002ee2:	f04f 0200 	mov.w	r2, #0
 8002ee6:	4641      	mov	r1, r8
 8002ee8:	4620      	mov	r0, r4
 8002eea:	d119      	bne.n	8002f20 <HAL_I2C_Mem_Read+0x190>
 8002eec:	f7ff fc31 	bl	8002752 <I2C_WaitOnFlagUntilTimeout>
 8002ef0:	2800      	cmp	r0, #0
 8002ef2:	d198      	bne.n	8002e26 <HAL_I2C_Mem_Read+0x96>
 8002ef4:	6823      	ldr	r3, [r4, #0]
 8002ef6:	681a      	ldr	r2, [r3, #0]
 8002ef8:	f442 7200 	orr.w	r2, r2, #512	@ 0x200
 8002efc:	601a      	str	r2, [r3, #0]
 8002efe:	691a      	ldr	r2, [r3, #16]
 8002f00:	6a63      	ldr	r3, [r4, #36]	@ 0x24
 8002f02:	701a      	strb	r2, [r3, #0]
 8002f04:	6a62      	ldr	r2, [r4, #36]	@ 0x24
 8002f06:	1c53      	adds	r3, r2, #1
 8002f08:	6263      	str	r3, [r4, #36]	@ 0x24
 8002f0a:	8d23      	ldrh	r3, [r4, #40]	@ 0x28
 8002f0c:	3b01      	subs	r3, #1
 8002f0e:	8523      	strh	r3, [r4, #40]	@ 0x28
 8002f10:	8d63      	ldrh	r3, [r4, #42]	@ 0x2a
 8002f12:	3b01      	subs	r3, #1
 8002f14:	b29b      	uxth	r3, r3
 8002f16:	8563      	strh	r3, [r4, #42]	@ 0x2a
 8002f18:	6823      	ldr	r3, [r4, #0]
 8002f1a:	691b      	ldr	r3, [r3, #16]
 8002f1c:	7053      	strb	r3, [r2, #1]
 8002f1e:	e7d2      	b.n	8002ec6 <HAL_I2C_Mem_Read+0x136>
 8002f20:	f7ff fc17 	bl	8002752 <I2C_WaitOnFlagUntilTimeout>
 8002f24:	4602      	mov	r2, r0
 8002f26:	2800      	cmp	r0, #0
 8002f28:	f47f af7d 	bne.w	8002e26 <HAL_I2C_Mem_Read+0x96>
 8002f2c:	6823      	ldr	r3, [r4, #0]
 8002f2e:	6819      	ldr	r1, [r3, #0]
 8002f30:	f421 6180 	bic.w	r1, r1, #1024	@ 0x400
 8002f34:	6019      	str	r1, [r3, #0]
 8002f36:	6919      	ldr	r1, [r3, #16]
 8002f38:	6a63      	ldr	r3, [r4, #36]	@ 0x24
 8002f3a:	7019      	strb	r1, [r3, #0]
 8002f3c:	6a63      	ldr	r3, [r4, #36]	@ 0x24
 8002f3e:	3301      	adds	r3, #1
 8002f40:	6263      	str	r3, [r4, #36]	@ 0x24
 8002f42:	8d23      	ldrh	r3, [r4, #40]	@ 0x28
 8002f44:	3b01      	subs	r3, #1
 8002f46:	8523      	strh	r3, [r4, #40]	@ 0x28
 8002f48:	8d63      	ldrh	r3, [r4, #42]	@ 0x2a
 8002f4a:	3b01      	subs	r3, #1
 8002f4c:	b29b      	uxth	r3, r3
 8002f4e:	8563      	strh	r3, [r4, #42]	@ 0x2a
 8002f50:	4641      	mov	r1, r8
 8002f52:	9600      	str	r6, [sp, #0]
 8002f54:	463b      	mov	r3, r7
 8002f56:	4620      	mov	r0, r4
 8002f58:	e7c8      	b.n	8002eec <HAL_I2C_Mem_Read+0x15c>
 8002f5a:	4632      	mov	r2, r6
 8002f5c:	4639      	mov	r1, r7
 8002f5e:	4620      	mov	r0, r4
 8002f60:	f7ff fdaa 	bl	8002ab8 <I2C_WaitOnRXNEFlagUntilTimeout>
 8002f64:	2800      	cmp	r0, #0
 8002f66:	f47f af5e 	bne.w	8002e26 <HAL_I2C_Mem_Read+0x96>
 8002f6a:	6823      	ldr	r3, [r4, #0]
 8002f6c:	691a      	ldr	r2, [r3, #16]
 8002f6e:	6a63      	ldr	r3, [r4, #36]	@ 0x24
 8002f70:	701a      	strb	r2, [r3, #0]
 8002f72:	8d62      	ldrh	r2, [r4, #42]	@ 0x2a
 8002f74:	6a61      	ldr	r1, [r4, #36]	@ 0x24
 8002f76:	3a01      	subs	r2, #1
 8002f78:	b292      	uxth	r2, r2
 8002f7a:	1c4b      	adds	r3, r1, #1
 8002f7c:	8562      	strh	r2, [r4, #42]	@ 0x2a
 8002f7e:	6822      	ldr	r2, [r4, #0]
 8002f80:	6263      	str	r3, [r4, #36]	@ 0x24
 8002f82:	8d23      	ldrh	r3, [r4, #40]	@ 0x28
 8002f84:	6950      	ldr	r0, [r2, #20]
 8002f86:	3b01      	subs	r3, #1
 8002f88:	b29b      	uxth	r3, r3
 8002f8a:	0740      	lsls	r0, r0, #29
 8002f8c:	8523      	strh	r3, [r4, #40]	@ 0x28
 8002f8e:	f57f af5b 	bpl.w	8002e48 <HAL_I2C_Mem_Read+0xb8>
 8002f92:	2b03      	cmp	r3, #3
 8002f94:	bf02      	ittt	eq
 8002f96:	6813      	ldreq	r3, [r2, #0]
 8002f98:	f423 6380 	biceq.w	r3, r3, #1024	@ 0x400
 8002f9c:	6013      	streq	r3, [r2, #0]
 8002f9e:	6913      	ldr	r3, [r2, #16]
 8002fa0:	704b      	strb	r3, [r1, #1]
 8002fa2:	e790      	b.n	8002ec6 <HAL_I2C_Mem_Read+0x136>
 8002fa4:	00100002 	.word	0x00100002
 8002fa8:	ffff0000 	.word	0xffff0000
 8002fac:	00010004 	.word	0x00010004

08002fb0 <HAL_RCC_OscConfig>:
 8002fb0:	e92d 41f3 	stmdb	sp!, {r0, r1, r4, r5, r6, r7, r8, lr}
 8002fb4:	4604      	mov	r4, r0
 8002fb6:	b340      	cbz	r0, 800300a <HAL_RCC_OscConfig+0x5a>
 8002fb8:	6803      	ldr	r3, [r0, #0]
 8002fba:	07de      	lsls	r6, r3, #31
 8002fbc:	d410      	bmi.n	8002fe0 <HAL_RCC_OscConfig+0x30>
 8002fbe:	6823      	ldr	r3, [r4, #0]
 8002fc0:	079d      	lsls	r5, r3, #30
 8002fc2:	d45b      	bmi.n	800307c <HAL_RCC_OscConfig+0xcc>
 8002fc4:	6823      	ldr	r3, [r4, #0]
 8002fc6:	0719      	lsls	r1, r3, #28
 8002fc8:	f100 809d 	bmi.w	8003106 <HAL_RCC_OscConfig+0x156>
 8002fcc:	6823      	ldr	r3, [r4, #0]
 8002fce:	075a      	lsls	r2, r3, #29
 8002fd0:	f100 80bd 	bmi.w	800314e <HAL_RCC_OscConfig+0x19e>
 8002fd4:	69a3      	ldr	r3, [r4, #24]
 8002fd6:	2b00      	cmp	r3, #0
 8002fd8:	f040 8124 	bne.w	8003224 <HAL_RCC_OscConfig+0x274>
 8002fdc:	2000      	movs	r0, #0
 8002fde:	e02c      	b.n	800303a <HAL_RCC_OscConfig+0x8a>
 8002fe0:	4b8d      	ldr	r3, [pc, #564]	@ (8003218 <HAL_RCC_OscConfig+0x268>)
 8002fe2:	689a      	ldr	r2, [r3, #8]
 8002fe4:	f002 020c 	and.w	r2, r2, #12
 8002fe8:	2a04      	cmp	r2, #4
 8002fea:	d007      	beq.n	8002ffc <HAL_RCC_OscConfig+0x4c>
 8002fec:	689a      	ldr	r2, [r3, #8]
 8002fee:	f002 020c 	and.w	r2, r2, #12
 8002ff2:	2a08      	cmp	r2, #8
 8002ff4:	d10b      	bne.n	800300e <HAL_RCC_OscConfig+0x5e>
 8002ff6:	685b      	ldr	r3, [r3, #4]
 8002ff8:	0259      	lsls	r1, r3, #9
 8002ffa:	d508      	bpl.n	800300e <HAL_RCC_OscConfig+0x5e>
 8002ffc:	4b86      	ldr	r3, [pc, #536]	@ (8003218 <HAL_RCC_OscConfig+0x268>)
 8002ffe:	681b      	ldr	r3, [r3, #0]
 8003000:	039a      	lsls	r2, r3, #14
 8003002:	d5dc      	bpl.n	8002fbe <HAL_RCC_OscConfig+0xe>
 8003004:	6863      	ldr	r3, [r4, #4]
 8003006:	2b00      	cmp	r3, #0
 8003008:	d1d9      	bne.n	8002fbe <HAL_RCC_OscConfig+0xe>
 800300a:	2001      	movs	r0, #1
 800300c:	e015      	b.n	800303a <HAL_RCC_OscConfig+0x8a>
 800300e:	6863      	ldr	r3, [r4, #4]
 8003010:	4d81      	ldr	r5, [pc, #516]	@ (8003218 <HAL_RCC_OscConfig+0x268>)
 8003012:	f5b3 3f80 	cmp.w	r3, #65536	@ 0x10000
 8003016:	d113      	bne.n	8003040 <HAL_RCC_OscConfig+0x90>
 8003018:	682b      	ldr	r3, [r5, #0]
 800301a:	f443 3380 	orr.w	r3, r3, #65536	@ 0x10000
 800301e:	602b      	str	r3, [r5, #0]
 8003020:	f7ff f9e0 	bl	80023e4 <HAL_GetTick>
 8003024:	4e7c      	ldr	r6, [pc, #496]	@ (8003218 <HAL_RCC_OscConfig+0x268>)
 8003026:	4605      	mov	r5, r0
 8003028:	6833      	ldr	r3, [r6, #0]
 800302a:	039b      	lsls	r3, r3, #14
 800302c:	d4c7      	bmi.n	8002fbe <HAL_RCC_OscConfig+0xe>
 800302e:	f7ff f9d9 	bl	80023e4 <HAL_GetTick>
 8003032:	1b40      	subs	r0, r0, r5
 8003034:	2864      	cmp	r0, #100	@ 0x64
 8003036:	d9f7      	bls.n	8003028 <HAL_RCC_OscConfig+0x78>
 8003038:	2003      	movs	r0, #3
 800303a:	b002      	add	sp, #8
 800303c:	e8bd 81f0 	ldmia.w	sp!, {r4, r5, r6, r7, r8, pc}
 8003040:	f5b3 2fa0 	cmp.w	r3, #327680	@ 0x50000
 8003044:	d104      	bne.n	8003050 <HAL_RCC_OscConfig+0xa0>
 8003046:	682b      	ldr	r3, [r5, #0]
 8003048:	f443 2380 	orr.w	r3, r3, #262144	@ 0x40000
 800304c:	602b      	str	r3, [r5, #0]
 800304e:	e7e3      	b.n	8003018 <HAL_RCC_OscConfig+0x68>
 8003050:	682a      	ldr	r2, [r5, #0]
 8003052:	f422 3280 	bic.w	r2, r2, #65536	@ 0x10000
 8003056:	602a      	str	r2, [r5, #0]
 8003058:	682a      	ldr	r2, [r5, #0]
 800305a:	f422 2280 	bic.w	r2, r2, #262144	@ 0x40000
 800305e:	602a      	str	r2, [r5, #0]
 8003060:	2b00      	cmp	r3, #0
 8003062:	d1dd      	bne.n	8003020 <HAL_RCC_OscConfig+0x70>
 8003064:	f7ff f9be 	bl	80023e4 <HAL_GetTick>
 8003068:	4606      	mov	r6, r0
 800306a:	682b      	ldr	r3, [r5, #0]
 800306c:	039f      	lsls	r7, r3, #14
 800306e:	d5a6      	bpl.n	8002fbe <HAL_RCC_OscConfig+0xe>
 8003070:	f7ff f9b8 	bl	80023e4 <HAL_GetTick>
 8003074:	1b80      	subs	r0, r0, r6
 8003076:	2864      	cmp	r0, #100	@ 0x64
 8003078:	d9f7      	bls.n	800306a <HAL_RCC_OscConfig+0xba>
 800307a:	e7dd      	b.n	8003038 <HAL_RCC_OscConfig+0x88>
 800307c:	4b66      	ldr	r3, [pc, #408]	@ (8003218 <HAL_RCC_OscConfig+0x268>)
 800307e:	689a      	ldr	r2, [r3, #8]
 8003080:	f012 0f0c 	tst.w	r2, #12
 8003084:	d007      	beq.n	8003096 <HAL_RCC_OscConfig+0xe6>
 8003086:	689a      	ldr	r2, [r3, #8]
 8003088:	f002 020c 	and.w	r2, r2, #12
 800308c:	2a08      	cmp	r2, #8
 800308e:	d111      	bne.n	80030b4 <HAL_RCC_OscConfig+0x104>
 8003090:	685b      	ldr	r3, [r3, #4]
 8003092:	025d      	lsls	r5, r3, #9
 8003094:	d40e      	bmi.n	80030b4 <HAL_RCC_OscConfig+0x104>
 8003096:	4a60      	ldr	r2, [pc, #384]	@ (8003218 <HAL_RCC_OscConfig+0x268>)
 8003098:	6813      	ldr	r3, [r2, #0]
 800309a:	0799      	lsls	r1, r3, #30
 800309c:	d502      	bpl.n	80030a4 <HAL_RCC_OscConfig+0xf4>
 800309e:	68e3      	ldr	r3, [r4, #12]
 80030a0:	2b01      	cmp	r3, #1
 80030a2:	d1b2      	bne.n	800300a <HAL_RCC_OscConfig+0x5a>
 80030a4:	6813      	ldr	r3, [r2, #0]
 80030a6:	6921      	ldr	r1, [r4, #16]
 80030a8:	f023 03f8 	bic.w	r3, r3, #248	@ 0xf8
 80030ac:	ea43 03c1 	orr.w	r3, r3, r1, lsl #3
 80030b0:	6013      	str	r3, [r2, #0]
 80030b2:	e787      	b.n	8002fc4 <HAL_RCC_OscConfig+0x14>
 80030b4:	68e2      	ldr	r2, [r4, #12]
 80030b6:	4b59      	ldr	r3, [pc, #356]	@ (800321c <HAL_RCC_OscConfig+0x26c>)
 80030b8:	b1b2      	cbz	r2, 80030e8 <HAL_RCC_OscConfig+0x138>
 80030ba:	2201      	movs	r2, #1
 80030bc:	601a      	str	r2, [r3, #0]
 80030be:	f7ff f991 	bl	80023e4 <HAL_GetTick>
 80030c2:	4d55      	ldr	r5, [pc, #340]	@ (8003218 <HAL_RCC_OscConfig+0x268>)
 80030c4:	4606      	mov	r6, r0
 80030c6:	682b      	ldr	r3, [r5, #0]
 80030c8:	079b      	lsls	r3, r3, #30
 80030ca:	d507      	bpl.n	80030dc <HAL_RCC_OscConfig+0x12c>
 80030cc:	682b      	ldr	r3, [r5, #0]
 80030ce:	6922      	ldr	r2, [r4, #16]
 80030d0:	f023 03f8 	bic.w	r3, r3, #248	@ 0xf8
 80030d4:	ea43 03c2 	orr.w	r3, r3, r2, lsl #3
 80030d8:	602b      	str	r3, [r5, #0]
 80030da:	e773      	b.n	8002fc4 <HAL_RCC_OscConfig+0x14>
 80030dc:	f7ff f982 	bl	80023e4 <HAL_GetTick>
 80030e0:	1b80      	subs	r0, r0, r6
 80030e2:	2802      	cmp	r0, #2
 80030e4:	d9ef      	bls.n	80030c6 <HAL_RCC_OscConfig+0x116>
 80030e6:	e7a7      	b.n	8003038 <HAL_RCC_OscConfig+0x88>
 80030e8:	601a      	str	r2, [r3, #0]
 80030ea:	f7ff f97b 	bl	80023e4 <HAL_GetTick>
 80030ee:	4e4a      	ldr	r6, [pc, #296]	@ (8003218 <HAL_RCC_OscConfig+0x268>)
 80030f0:	4605      	mov	r5, r0
 80030f2:	6833      	ldr	r3, [r6, #0]
 80030f4:	079f      	lsls	r7, r3, #30
 80030f6:	f57f af65 	bpl.w	8002fc4 <HAL_RCC_OscConfig+0x14>
 80030fa:	f7ff f973 	bl	80023e4 <HAL_GetTick>
 80030fe:	1b40      	subs	r0, r0, r5
 8003100:	2802      	cmp	r0, #2
 8003102:	d9f6      	bls.n	80030f2 <HAL_RCC_OscConfig+0x142>
 8003104:	e798      	b.n	8003038 <HAL_RCC_OscConfig+0x88>
 8003106:	6962      	ldr	r2, [r4, #20]
 8003108:	4b44      	ldr	r3, [pc, #272]	@ (800321c <HAL_RCC_OscConfig+0x26c>)
 800310a:	b182      	cbz	r2, 800312e <HAL_RCC_OscConfig+0x17e>
 800310c:	2201      	movs	r2, #1
 800310e:	f8c3 2e80 	str.w	r2, [r3, #3712]	@ 0xe80
 8003112:	f7ff f967 	bl	80023e4 <HAL_GetTick>
 8003116:	4e40      	ldr	r6, [pc, #256]	@ (8003218 <HAL_RCC_OscConfig+0x268>)
 8003118:	4605      	mov	r5, r0
 800311a:	6f73      	ldr	r3, [r6, #116]	@ 0x74
 800311c:	079b      	lsls	r3, r3, #30
 800311e:	f53f af55 	bmi.w	8002fcc <HAL_RCC_OscConfig+0x1c>
 8003122:	f7ff f95f 	bl	80023e4 <HAL_GetTick>
 8003126:	1b40      	subs	r0, r0, r5
 8003128:	2802      	cmp	r0, #2
 800312a:	d9f6      	bls.n	800311a <HAL_RCC_OscConfig+0x16a>
 800312c:	e784      	b.n	8003038 <HAL_RCC_OscConfig+0x88>
 800312e:	f8c3 2e80 	str.w	r2, [r3, #3712]	@ 0xe80
 8003132:	f7ff f957 	bl	80023e4 <HAL_GetTick>
 8003136:	4e38      	ldr	r6, [pc, #224]	@ (8003218 <HAL_RCC_OscConfig+0x268>)
 8003138:	4605      	mov	r5, r0
 800313a:	6f73      	ldr	r3, [r6, #116]	@ 0x74
 800313c:	079f      	lsls	r7, r3, #30
 800313e:	f57f af45 	bpl.w	8002fcc <HAL_RCC_OscConfig+0x1c>
 8003142:	f7ff f94f 	bl	80023e4 <HAL_GetTick>
 8003146:	1b40      	subs	r0, r0, r5
 8003148:	2802      	cmp	r0, #2
 800314a:	d9f6      	bls.n	800313a <HAL_RCC_OscConfig+0x18a>
 800314c:	e774      	b.n	8003038 <HAL_RCC_OscConfig+0x88>
 800314e:	4b32      	ldr	r3, [pc, #200]	@ (8003218 <HAL_RCC_OscConfig+0x268>)
 8003150:	6c1a      	ldr	r2, [r3, #64]	@ 0x40
 8003152:	f012 5280 	ands.w	r2, r2, #268435456	@ 0x10000000
 8003156:	d128      	bne.n	80031aa <HAL_RCC_OscConfig+0x1fa>
 8003158:	9201      	str	r2, [sp, #4]
 800315a:	6c1a      	ldr	r2, [r3, #64]	@ 0x40
 800315c:	f042 5280 	orr.w	r2, r2, #268435456	@ 0x10000000
 8003160:	641a      	str	r2, [r3, #64]	@ 0x40
 8003162:	6c1b      	ldr	r3, [r3, #64]	@ 0x40
 8003164:	f003 5380 	and.w	r3, r3, #268435456	@ 0x10000000
 8003168:	9301      	str	r3, [sp, #4]
 800316a:	9b01      	ldr	r3, [sp, #4]
 800316c:	2701      	movs	r7, #1
 800316e:	4d2c      	ldr	r5, [pc, #176]	@ (8003220 <HAL_RCC_OscConfig+0x270>)
 8003170:	682b      	ldr	r3, [r5, #0]
 8003172:	05d8      	lsls	r0, r3, #23
 8003174:	d51b      	bpl.n	80031ae <HAL_RCC_OscConfig+0x1fe>
 8003176:	68a3      	ldr	r3, [r4, #8]
 8003178:	4d27      	ldr	r5, [pc, #156]	@ (8003218 <HAL_RCC_OscConfig+0x268>)
 800317a:	2b01      	cmp	r3, #1
 800317c:	d127      	bne.n	80031ce <HAL_RCC_OscConfig+0x21e>
 800317e:	6f2b      	ldr	r3, [r5, #112]	@ 0x70
 8003180:	f043 0301 	orr.w	r3, r3, #1
 8003184:	672b      	str	r3, [r5, #112]	@ 0x70
 8003186:	f7ff f92d 	bl	80023e4 <HAL_GetTick>
 800318a:	4e23      	ldr	r6, [pc, #140]	@ (8003218 <HAL_RCC_OscConfig+0x268>)
 800318c:	4605      	mov	r5, r0
 800318e:	f241 3888 	movw	r8, #5000	@ 0x1388
 8003192:	6f33      	ldr	r3, [r6, #112]	@ 0x70
 8003194:	079a      	lsls	r2, r3, #30
 8003196:	d539      	bpl.n	800320c <HAL_RCC_OscConfig+0x25c>
 8003198:	2f00      	cmp	r7, #0
 800319a:	f43f af1b 	beq.w	8002fd4 <HAL_RCC_OscConfig+0x24>
 800319e:	4a1e      	ldr	r2, [pc, #120]	@ (8003218 <HAL_RCC_OscConfig+0x268>)
 80031a0:	6c13      	ldr	r3, [r2, #64]	@ 0x40
 80031a2:	f023 5380 	bic.w	r3, r3, #268435456	@ 0x10000000
 80031a6:	6413      	str	r3, [r2, #64]	@ 0x40
 80031a8:	e714      	b.n	8002fd4 <HAL_RCC_OscConfig+0x24>
 80031aa:	2700      	movs	r7, #0
 80031ac:	e7df      	b.n	800316e <HAL_RCC_OscConfig+0x1be>
 80031ae:	682b      	ldr	r3, [r5, #0]
 80031b0:	f443 7380 	orr.w	r3, r3, #256	@ 0x100
 80031b4:	602b      	str	r3, [r5, #0]
 80031b6:	f7ff f915 	bl	80023e4 <HAL_GetTick>
 80031ba:	4606      	mov	r6, r0
 80031bc:	682b      	ldr	r3, [r5, #0]
 80031be:	05d9      	lsls	r1, r3, #23
 80031c0:	d4d9      	bmi.n	8003176 <HAL_RCC_OscConfig+0x1c6>
 80031c2:	f7ff f90f 	bl	80023e4 <HAL_GetTick>
 80031c6:	1b80      	subs	r0, r0, r6
 80031c8:	2802      	cmp	r0, #2
 80031ca:	d9f7      	bls.n	80031bc <HAL_RCC_OscConfig+0x20c>
 80031cc:	e734      	b.n	8003038 <HAL_RCC_OscConfig+0x88>
 80031ce:	2b05      	cmp	r3, #5
 80031d0:	d104      	bne.n	80031dc <HAL_RCC_OscConfig+0x22c>
 80031d2:	6f2b      	ldr	r3, [r5, #112]	@ 0x70
 80031d4:	f043 0304 	orr.w	r3, r3, #4
 80031d8:	672b      	str	r3, [r5, #112]	@ 0x70
 80031da:	e7d0      	b.n	800317e <HAL_RCC_OscConfig+0x1ce>
 80031dc:	6f2a      	ldr	r2, [r5, #112]	@ 0x70
 80031de:	f022 0201 	bic.w	r2, r2, #1
 80031e2:	672a      	str	r2, [r5, #112]	@ 0x70
 80031e4:	6f2a      	ldr	r2, [r5, #112]	@ 0x70
 80031e6:	f022 0204 	bic.w	r2, r2, #4
 80031ea:	672a      	str	r2, [r5, #112]	@ 0x70
 80031ec:	2b00      	cmp	r3, #0
 80031ee:	d1ca      	bne.n	8003186 <HAL_RCC_OscConfig+0x1d6>
 80031f0:	f7ff f8f8 	bl	80023e4 <HAL_GetTick>
 80031f4:	f241 3888 	movw	r8, #5000	@ 0x1388
 80031f8:	4606      	mov	r6, r0
 80031fa:	6f2b      	ldr	r3, [r5, #112]	@ 0x70
 80031fc:	079b      	lsls	r3, r3, #30
 80031fe:	d5cb      	bpl.n	8003198 <HAL_RCC_OscConfig+0x1e8>
 8003200:	f7ff f8f0 	bl	80023e4 <HAL_GetTick>
 8003204:	1b80      	subs	r0, r0, r6
 8003206:	4540      	cmp	r0, r8
 8003208:	d9f7      	bls.n	80031fa <HAL_RCC_OscConfig+0x24a>
 800320a:	e715      	b.n	8003038 <HAL_RCC_OscConfig+0x88>
 800320c:	f7ff f8ea 	bl	80023e4 <HAL_GetTick>
 8003210:	1b40      	subs	r0, r0, r5
 8003212:	4540      	cmp	r0, r8
 8003214:	d9bd      	bls.n	8003192 <HAL_RCC_OscConfig+0x1e2>
 8003216:	e70f      	b.n	8003038 <HAL_RCC_OscConfig+0x88>
 8003218:	40023800 	.word	0x40023800
 800321c:	42470000 	.word	0x42470000
 8003220:	40007000 	.word	0x40007000
 8003224:	4d37      	ldr	r5, [pc, #220]	@ (8003304 <HAL_RCC_OscConfig+0x354>)
 8003226:	68aa      	ldr	r2, [r5, #8]
 8003228:	f002 020c 	and.w	r2, r2, #12
 800322c:	2a08      	cmp	r2, #8
 800322e:	d03e      	beq.n	80032ae <HAL_RCC_OscConfig+0x2fe>
 8003230:	2b02      	cmp	r3, #2
 8003232:	4b35      	ldr	r3, [pc, #212]	@ (8003308 <HAL_RCC_OscConfig+0x358>)
 8003234:	f04f 0200 	mov.w	r2, #0
 8003238:	661a      	str	r2, [r3, #96]	@ 0x60
 800323a:	d12b      	bne.n	8003294 <HAL_RCC_OscConfig+0x2e4>
 800323c:	f7ff f8d2 	bl	80023e4 <HAL_GetTick>
 8003240:	4606      	mov	r6, r0
 8003242:	682b      	ldr	r3, [r5, #0]
 8003244:	0199      	lsls	r1, r3, #6
 8003246:	d41f      	bmi.n	8003288 <HAL_RCC_OscConfig+0x2d8>
 8003248:	e9d4 3207 	ldrd	r3, r2, [r4, #28]
 800324c:	4313      	orrs	r3, r2
 800324e:	6a62      	ldr	r2, [r4, #36]	@ 0x24
 8003250:	ea43 1382 	orr.w	r3, r3, r2, lsl #6
 8003254:	6ae2      	ldr	r2, [r4, #44]	@ 0x2c
 8003256:	ea43 6302 	orr.w	r3, r3, r2, lsl #24
 800325a:	6aa2      	ldr	r2, [r4, #40]	@ 0x28
 800325c:	0852      	lsrs	r2, r2, #1
 800325e:	3a01      	subs	r2, #1
 8003260:	ea43 4302 	orr.w	r3, r3, r2, lsl #16
 8003264:	606b      	str	r3, [r5, #4]
 8003266:	4b28      	ldr	r3, [pc, #160]	@ (8003308 <HAL_RCC_OscConfig+0x358>)
 8003268:	4d26      	ldr	r5, [pc, #152]	@ (8003304 <HAL_RCC_OscConfig+0x354>)
 800326a:	2201      	movs	r2, #1
 800326c:	661a      	str	r2, [r3, #96]	@ 0x60
 800326e:	f7ff f8b9 	bl	80023e4 <HAL_GetTick>
 8003272:	4604      	mov	r4, r0
 8003274:	682b      	ldr	r3, [r5, #0]
 8003276:	019a      	lsls	r2, r3, #6
 8003278:	f53f aeb0 	bmi.w	8002fdc <HAL_RCC_OscConfig+0x2c>
 800327c:	f7ff f8b2 	bl	80023e4 <HAL_GetTick>
 8003280:	1b00      	subs	r0, r0, r4
 8003282:	2802      	cmp	r0, #2
 8003284:	d9f6      	bls.n	8003274 <HAL_RCC_OscConfig+0x2c4>
 8003286:	e6d7      	b.n	8003038 <HAL_RCC_OscConfig+0x88>
 8003288:	f7ff f8ac 	bl	80023e4 <HAL_GetTick>
 800328c:	1b80      	subs	r0, r0, r6
 800328e:	2802      	cmp	r0, #2
 8003290:	d9d7      	bls.n	8003242 <HAL_RCC_OscConfig+0x292>
 8003292:	e6d1      	b.n	8003038 <HAL_RCC_OscConfig+0x88>
 8003294:	f7ff f8a6 	bl	80023e4 <HAL_GetTick>
 8003298:	4604      	mov	r4, r0
 800329a:	682b      	ldr	r3, [r5, #0]
 800329c:	019b      	lsls	r3, r3, #6
 800329e:	f57f ae9d 	bpl.w	8002fdc <HAL_RCC_OscConfig+0x2c>
 80032a2:	f7ff f89f 	bl	80023e4 <HAL_GetTick>
 80032a6:	1b00      	subs	r0, r0, r4
 80032a8:	2802      	cmp	r0, #2
 80032aa:	d9f6      	bls.n	800329a <HAL_RCC_OscConfig+0x2ea>
 80032ac:	e6c4      	b.n	8003038 <HAL_RCC_OscConfig+0x88>
 80032ae:	2b01      	cmp	r3, #1
 80032b0:	f43f aeab 	beq.w	800300a <HAL_RCC_OscConfig+0x5a>
 80032b4:	686b      	ldr	r3, [r5, #4]
 80032b6:	69e2      	ldr	r2, [r4, #28]
 80032b8:	f403 0180 	and.w	r1, r3, #4194304	@ 0x400000
 80032bc:	4291      	cmp	r1, r2
 80032be:	f47f aea4 	bne.w	800300a <HAL_RCC_OscConfig+0x5a>
 80032c2:	6a21      	ldr	r1, [r4, #32]
 80032c4:	f003 023f 	and.w	r2, r3, #63	@ 0x3f
 80032c8:	428a      	cmp	r2, r1
 80032ca:	f47f ae9e 	bne.w	800300a <HAL_RCC_OscConfig+0x5a>
 80032ce:	6a61      	ldr	r1, [r4, #36]	@ 0x24
 80032d0:	f647 72c0 	movw	r2, #32704	@ 0x7fc0
 80032d4:	401a      	ands	r2, r3
 80032d6:	ebb2 1f81 	cmp.w	r2, r1, lsl #6
 80032da:	f47f ae96 	bne.w	800300a <HAL_RCC_OscConfig+0x5a>
 80032de:	6aa2      	ldr	r2, [r4, #40]	@ 0x28
 80032e0:	0852      	lsrs	r2, r2, #1
 80032e2:	f403 3140 	and.w	r1, r3, #196608	@ 0x30000
 80032e6:	3a01      	subs	r2, #1
 80032e8:	ebb1 4f02 	cmp.w	r1, r2, lsl #16
 80032ec:	f47f ae8d 	bne.w	800300a <HAL_RCC_OscConfig+0x5a>
 80032f0:	6ae2      	ldr	r2, [r4, #44]	@ 0x2c
 80032f2:	f003 6370 	and.w	r3, r3, #251658240	@ 0xf000000
 80032f6:	ebb3 6f02 	cmp.w	r3, r2, lsl #24
 80032fa:	bf14      	ite	ne
 80032fc:	2001      	movne	r0, #1
 80032fe:	2000      	moveq	r0, #0
 8003300:	e69b      	b.n	800303a <HAL_RCC_OscConfig+0x8a>
 8003302:	bf00      	nop
 8003304:	40023800 	.word	0x40023800
 8003308:	42470000 	.word	0x42470000

0800330c <HAL_RCC_GetSysClockFreq>:
 800330c:	4913      	ldr	r1, [pc, #76]	@ (800335c <HAL_RCC_GetSysClockFreq+0x50>)
 800330e:	b508      	push	{r3, lr}
 8003310:	688b      	ldr	r3, [r1, #8]
 8003312:	f003 030c 	and.w	r3, r3, #12
 8003316:	2b04      	cmp	r3, #4
 8003318:	d01c      	beq.n	8003354 <HAL_RCC_GetSysClockFreq+0x48>
 800331a:	2b08      	cmp	r3, #8
 800331c:	d11c      	bne.n	8003358 <HAL_RCC_GetSysClockFreq+0x4c>
 800331e:	684a      	ldr	r2, [r1, #4]
 8003320:	684b      	ldr	r3, [r1, #4]
 8003322:	6849      	ldr	r1, [r1, #4]
 8003324:	f413 0380 	ands.w	r3, r3, #4194304	@ 0x400000
 8003328:	bf14      	ite	ne
 800332a:	480d      	ldrne	r0, [pc, #52]	@ (8003360 <HAL_RCC_GetSysClockFreq+0x54>)
 800332c:	480d      	ldreq	r0, [pc, #52]	@ (8003364 <HAL_RCC_GetSysClockFreq+0x58>)
 800332e:	f3c1 1188 	ubfx	r1, r1, #6, #9
 8003332:	bf18      	it	ne
 8003334:	2300      	movne	r3, #0
 8003336:	f002 023f 	and.w	r2, r2, #63	@ 0x3f
 800333a:	fba1 0100 	umull	r0, r1, r1, r0
 800333e:	f7fc ff53 	bl	80001e8 <__aeabi_uldivmod>
 8003342:	4b06      	ldr	r3, [pc, #24]	@ (800335c <HAL_RCC_GetSysClockFreq+0x50>)
 8003344:	685b      	ldr	r3, [r3, #4]
 8003346:	f3c3 4301 	ubfx	r3, r3, #16, #2
 800334a:	3301      	adds	r3, #1
 800334c:	005b      	lsls	r3, r3, #1
 800334e:	fbb0 f0f3 	udiv	r0, r0, r3
 8003352:	bd08      	pop	{r3, pc}
 8003354:	4802      	ldr	r0, [pc, #8]	@ (8003360 <HAL_RCC_GetSysClockFreq+0x54>)
 8003356:	e7fc      	b.n	8003352 <HAL_RCC_GetSysClockFreq+0x46>
 8003358:	4802      	ldr	r0, [pc, #8]	@ (8003364 <HAL_RCC_GetSysClockFreq+0x58>)
 800335a:	e7fa      	b.n	8003352 <HAL_RCC_GetSysClockFreq+0x46>
 800335c:	40023800 	.word	0x40023800
 8003360:	018cba80 	.word	0x018cba80
 8003364:	00f42400 	.word	0x00f42400

08003368 <HAL_RCC_ClockConfig>:
 8003368:	e92d 41f0 	stmdb	sp!, {r4, r5, r6, r7, r8, lr}
 800336c:	460d      	mov	r5, r1
 800336e:	4604      	mov	r4, r0
 8003370:	b910      	cbnz	r0, 8003378 <HAL_RCC_ClockConfig+0x10>
 8003372:	2001      	movs	r0, #1
 8003374:	e8bd 81f0 	ldmia.w	sp!, {r4, r5, r6, r7, r8, pc}
 8003378:	4b43      	ldr	r3, [pc, #268]	@ (8003488 <HAL_RCC_ClockConfig+0x120>)
 800337a:	681a      	ldr	r2, [r3, #0]
 800337c:	f002 0207 	and.w	r2, r2, #7
 8003380:	428a      	cmp	r2, r1
 8003382:	d328      	bcc.n	80033d6 <HAL_RCC_ClockConfig+0x6e>
 8003384:	6821      	ldr	r1, [r4, #0]
 8003386:	078f      	lsls	r7, r1, #30
 8003388:	d42d      	bmi.n	80033e6 <HAL_RCC_ClockConfig+0x7e>
 800338a:	07c8      	lsls	r0, r1, #31
 800338c:	d440      	bmi.n	8003410 <HAL_RCC_ClockConfig+0xa8>
 800338e:	4b3e      	ldr	r3, [pc, #248]	@ (8003488 <HAL_RCC_ClockConfig+0x120>)
 8003390:	681a      	ldr	r2, [r3, #0]
 8003392:	f002 0207 	and.w	r2, r2, #7
 8003396:	42aa      	cmp	r2, r5
 8003398:	d865      	bhi.n	8003466 <HAL_RCC_ClockConfig+0xfe>
 800339a:	6822      	ldr	r2, [r4, #0]
 800339c:	0751      	lsls	r1, r2, #29
 800339e:	d46b      	bmi.n	8003478 <HAL_RCC_ClockConfig+0x110>
 80033a0:	0713      	lsls	r3, r2, #28
 80033a2:	d507      	bpl.n	80033b4 <HAL_RCC_ClockConfig+0x4c>
 80033a4:	4a39      	ldr	r2, [pc, #228]	@ (800348c <HAL_RCC_ClockConfig+0x124>)
 80033a6:	6921      	ldr	r1, [r4, #16]
 80033a8:	6893      	ldr	r3, [r2, #8]
 80033aa:	f423 4360 	bic.w	r3, r3, #57344	@ 0xe000
 80033ae:	ea43 03c1 	orr.w	r3, r3, r1, lsl #3
 80033b2:	6093      	str	r3, [r2, #8]
 80033b4:	f7ff ffaa 	bl	800330c <HAL_RCC_GetSysClockFreq>
 80033b8:	4b34      	ldr	r3, [pc, #208]	@ (800348c <HAL_RCC_ClockConfig+0x124>)
 80033ba:	4a35      	ldr	r2, [pc, #212]	@ (8003490 <HAL_RCC_ClockConfig+0x128>)
 80033bc:	689b      	ldr	r3, [r3, #8]
 80033be:	f3c3 1303 	ubfx	r3, r3, #4, #4
 80033c2:	5cd3      	ldrb	r3, [r2, r3]
 80033c4:	40d8      	lsrs	r0, r3
 80033c6:	4b33      	ldr	r3, [pc, #204]	@ (8003494 <HAL_RCC_ClockConfig+0x12c>)
 80033c8:	6018      	str	r0, [r3, #0]
 80033ca:	4b33      	ldr	r3, [pc, #204]	@ (8003498 <HAL_RCC_ClockConfig+0x130>)
 80033cc:	6818      	ldr	r0, [r3, #0]
 80033ce:	f7fe ffbf 	bl	8002350 <HAL_InitTick>
 80033d2:	2000      	movs	r0, #0
 80033d4:	e7ce      	b.n	8003374 <HAL_RCC_ClockConfig+0xc>
 80033d6:	b2ca      	uxtb	r2, r1
 80033d8:	701a      	strb	r2, [r3, #0]
 80033da:	681b      	ldr	r3, [r3, #0]
 80033dc:	f003 0307 	and.w	r3, r3, #7
 80033e0:	428b      	cmp	r3, r1
 80033e2:	d1c6      	bne.n	8003372 <HAL_RCC_ClockConfig+0xa>
 80033e4:	e7ce      	b.n	8003384 <HAL_RCC_ClockConfig+0x1c>
 80033e6:	4b29      	ldr	r3, [pc, #164]	@ (800348c <HAL_RCC_ClockConfig+0x124>)
 80033e8:	f011 0f04 	tst.w	r1, #4
 80033ec:	bf1e      	ittt	ne
 80033ee:	689a      	ldrne	r2, [r3, #8]
 80033f0:	f442 52e0 	orrne.w	r2, r2, #7168	@ 0x1c00
 80033f4:	609a      	strne	r2, [r3, #8]
 80033f6:	070e      	lsls	r6, r1, #28
 80033f8:	bf42      	ittt	mi
 80033fa:	689a      	ldrmi	r2, [r3, #8]
 80033fc:	f442 4260 	orrmi.w	r2, r2, #57344	@ 0xe000
 8003400:	609a      	strmi	r2, [r3, #8]
 8003402:	689a      	ldr	r2, [r3, #8]
 8003404:	68a0      	ldr	r0, [r4, #8]
 8003406:	f022 02f0 	bic.w	r2, r2, #240	@ 0xf0
 800340a:	4302      	orrs	r2, r0
 800340c:	609a      	str	r2, [r3, #8]
 800340e:	e7bc      	b.n	800338a <HAL_RCC_ClockConfig+0x22>
 8003410:	6862      	ldr	r2, [r4, #4]
 8003412:	4b1e      	ldr	r3, [pc, #120]	@ (800348c <HAL_RCC_ClockConfig+0x124>)
 8003414:	2a01      	cmp	r2, #1
 8003416:	d11c      	bne.n	8003452 <HAL_RCC_ClockConfig+0xea>
 8003418:	681b      	ldr	r3, [r3, #0]
 800341a:	f413 3f00 	tst.w	r3, #131072	@ 0x20000
 800341e:	d0a8      	beq.n	8003372 <HAL_RCC_ClockConfig+0xa>
 8003420:	4e1a      	ldr	r6, [pc, #104]	@ (800348c <HAL_RCC_ClockConfig+0x124>)
 8003422:	68b3      	ldr	r3, [r6, #8]
 8003424:	f023 0303 	bic.w	r3, r3, #3
 8003428:	4313      	orrs	r3, r2
 800342a:	60b3      	str	r3, [r6, #8]
 800342c:	f7fe ffda 	bl	80023e4 <HAL_GetTick>
 8003430:	f241 3888 	movw	r8, #5000	@ 0x1388
 8003434:	4607      	mov	r7, r0
 8003436:	68b3      	ldr	r3, [r6, #8]
 8003438:	6862      	ldr	r2, [r4, #4]
 800343a:	f003 030c 	and.w	r3, r3, #12
 800343e:	ebb3 0f82 	cmp.w	r3, r2, lsl #2
 8003442:	d0a4      	beq.n	800338e <HAL_RCC_ClockConfig+0x26>
 8003444:	f7fe ffce 	bl	80023e4 <HAL_GetTick>
 8003448:	1bc0      	subs	r0, r0, r7
 800344a:	4540      	cmp	r0, r8
 800344c:	d9f3      	bls.n	8003436 <HAL_RCC_ClockConfig+0xce>
 800344e:	2003      	movs	r0, #3
 8003450:	e790      	b.n	8003374 <HAL_RCC_ClockConfig+0xc>
 8003452:	1e91      	subs	r1, r2, #2
 8003454:	2901      	cmp	r1, #1
 8003456:	681b      	ldr	r3, [r3, #0]
 8003458:	d802      	bhi.n	8003460 <HAL_RCC_ClockConfig+0xf8>
 800345a:	f013 7f00 	tst.w	r3, #33554432	@ 0x2000000
 800345e:	e7de      	b.n	800341e <HAL_RCC_ClockConfig+0xb6>
 8003460:	f013 0f02 	tst.w	r3, #2
 8003464:	e7db      	b.n	800341e <HAL_RCC_ClockConfig+0xb6>
 8003466:	b2ea      	uxtb	r2, r5
 8003468:	701a      	strb	r2, [r3, #0]
 800346a:	681b      	ldr	r3, [r3, #0]
 800346c:	f003 0307 	and.w	r3, r3, #7
 8003470:	42ab      	cmp	r3, r5
 8003472:	f47f af7e 	bne.w	8003372 <HAL_RCC_ClockConfig+0xa>
 8003476:	e790      	b.n	800339a <HAL_RCC_ClockConfig+0x32>
 8003478:	4904      	ldr	r1, [pc, #16]	@ (800348c <HAL_RCC_ClockConfig+0x124>)
 800347a:	68e0      	ldr	r0, [r4, #12]
 800347c:	688b      	ldr	r3, [r1, #8]
 800347e:	f423 53e0 	bic.w	r3, r3, #7168	@ 0x1c00
 8003482:	4303      	orrs	r3, r0
 8003484:	608b      	str	r3, [r1, #8]
 8003486:	e78b      	b.n	80033a0 <HAL_RCC_ClockConfig+0x38>
 8003488:	40023c00 	.word	0x40023c00
 800348c:	40023800 	.word	0x40023800
 8003490:	08004811 	.word	0x08004811
 8003494:	20000004 	.word	0x20000004
 8003498:	2000000c 	.word	0x2000000c

0800349c <HAL_RCC_GetPCLK1Freq>:
 800349c:	4b04      	ldr	r3, [pc, #16]	@ (80034b0 <HAL_RCC_GetPCLK1Freq+0x14>)
 800349e:	4a05      	ldr	r2, [pc, #20]	@ (80034b4 <HAL_RCC_GetPCLK1Freq+0x18>)
 80034a0:	689b      	ldr	r3, [r3, #8]
 80034a2:	f3c3 2382 	ubfx	r3, r3, #10, #3
 80034a6:	5cd3      	ldrb	r3, [r2, r3]
 80034a8:	4a03      	ldr	r2, [pc, #12]	@ (80034b8 <HAL_RCC_GetPCLK1Freq+0x1c>)
 80034aa:	6810      	ldr	r0, [r2, #0]
 80034ac:	40d8      	lsrs	r0, r3
 80034ae:	4770      	bx	lr
 80034b0:	40023800 	.word	0x40023800
 80034b4:	08004809 	.word	0x08004809
 80034b8:	20000004 	.word	0x20000004

080034bc <HAL_RCC_GetPCLK2Freq>:
 80034bc:	4b04      	ldr	r3, [pc, #16]	@ (80034d0 <HAL_RCC_GetPCLK2Freq+0x14>)
 80034be:	4a05      	ldr	r2, [pc, #20]	@ (80034d4 <HAL_RCC_GetPCLK2Freq+0x18>)
 80034c0:	689b      	ldr	r3, [r3, #8]
 80034c2:	f3c3 3342 	ubfx	r3, r3, #13, #3
 80034c6:	5cd3      	ldrb	r3, [r2, r3]
 80034c8:	4a03      	ldr	r2, [pc, #12]	@ (80034d8 <HAL_RCC_GetPCLK2Freq+0x1c>)
 80034ca:	6810      	ldr	r0, [r2, #0]
 80034cc:	40d8      	lsrs	r0, r3
 80034ce:	4770      	bx	lr
 80034d0:	40023800 	.word	0x40023800
 80034d4:	08004809 	.word	0x08004809
 80034d8:	20000004 	.word	0x20000004

080034dc <TIM_OC1_SetConfig>:
 80034dc:	6a03      	ldr	r3, [r0, #32]
 80034de:	6a02      	ldr	r2, [r0, #32]
 80034e0:	f022 0201 	bic.w	r2, r2, #1
 80034e4:	b570      	push	{r4, r5, r6, lr}
 80034e6:	6202      	str	r2, [r0, #32]
 80034e8:	6844      	ldr	r4, [r0, #4]
 80034ea:	6982      	ldr	r2, [r0, #24]
 80034ec:	680d      	ldr	r5, [r1, #0]
 80034ee:	f022 0273 	bic.w	r2, r2, #115	@ 0x73
 80034f2:	432a      	orrs	r2, r5
 80034f4:	688d      	ldr	r5, [r1, #8]
 80034f6:	f023 0302 	bic.w	r3, r3, #2
 80034fa:	432b      	orrs	r3, r5
 80034fc:	4d0a      	ldr	r5, [pc, #40]	@ (8003528 <TIM_OC1_SetConfig+0x4c>)
 80034fe:	42a8      	cmp	r0, r5
 8003500:	d10b      	bne.n	800351a <TIM_OC1_SetConfig+0x3e>
 8003502:	68cd      	ldr	r5, [r1, #12]
 8003504:	f023 0308 	bic.w	r3, r3, #8
 8003508:	432b      	orrs	r3, r5
 800350a:	e9d1 5605 	ldrd	r5, r6, [r1, #20]
 800350e:	f424 7440 	bic.w	r4, r4, #768	@ 0x300
 8003512:	4335      	orrs	r5, r6
 8003514:	f023 0304 	bic.w	r3, r3, #4
 8003518:	432c      	orrs	r4, r5
 800351a:	6044      	str	r4, [r0, #4]
 800351c:	6182      	str	r2, [r0, #24]
 800351e:	684a      	ldr	r2, [r1, #4]
 8003520:	6342      	str	r2, [r0, #52]	@ 0x34
 8003522:	6203      	str	r3, [r0, #32]
 8003524:	bd70      	pop	{r4, r5, r6, pc}
 8003526:	bf00      	nop
 8003528:	40010000 	.word	0x40010000

0800352c <TIM_OC3_SetConfig>:
 800352c:	6a03      	ldr	r3, [r0, #32]
 800352e:	6a02      	ldr	r2, [r0, #32]
 8003530:	f422 7280 	bic.w	r2, r2, #256	@ 0x100
 8003534:	b570      	push	{r4, r5, r6, lr}
 8003536:	6202      	str	r2, [r0, #32]
 8003538:	6844      	ldr	r4, [r0, #4]
 800353a:	69c2      	ldr	r2, [r0, #28]
 800353c:	680d      	ldr	r5, [r1, #0]
 800353e:	f022 0273 	bic.w	r2, r2, #115	@ 0x73
 8003542:	432a      	orrs	r2, r5
 8003544:	688d      	ldr	r5, [r1, #8]
 8003546:	f423 7300 	bic.w	r3, r3, #512	@ 0x200
 800354a:	ea43 2305 	orr.w	r3, r3, r5, lsl #8
 800354e:	4d0b      	ldr	r5, [pc, #44]	@ (800357c <TIM_OC3_SetConfig+0x50>)
 8003550:	42a8      	cmp	r0, r5
 8003552:	d10d      	bne.n	8003570 <TIM_OC3_SetConfig+0x44>
 8003554:	68cd      	ldr	r5, [r1, #12]
 8003556:	f423 6300 	bic.w	r3, r3, #2048	@ 0x800
 800355a:	ea43 2305 	orr.w	r3, r3, r5, lsl #8
 800355e:	e9d1 5605 	ldrd	r5, r6, [r1, #20]
 8003562:	f424 5440 	bic.w	r4, r4, #12288	@ 0x3000
 8003566:	4335      	orrs	r5, r6
 8003568:	f423 6380 	bic.w	r3, r3, #1024	@ 0x400
 800356c:	ea44 1405 	orr.w	r4, r4, r5, lsl #4
 8003570:	6044      	str	r4, [r0, #4]
 8003572:	61c2      	str	r2, [r0, #28]
 8003574:	684a      	ldr	r2, [r1, #4]
 8003576:	63c2      	str	r2, [r0, #60]	@ 0x3c
 8003578:	6203      	str	r3, [r0, #32]
 800357a:	bd70      	pop	{r4, r5, r6, pc}
 800357c:	40010000 	.word	0x40010000

08003580 <TIM_OC4_SetConfig>:
 8003580:	6a03      	ldr	r3, [r0, #32]
 8003582:	6a02      	ldr	r2, [r0, #32]
 8003584:	f422 5280 	bic.w	r2, r2, #4096	@ 0x1000
 8003588:	b530      	push	{r4, r5, lr}
 800358a:	6202      	str	r2, [r0, #32]
 800358c:	6844      	ldr	r4, [r0, #4]
 800358e:	69c2      	ldr	r2, [r0, #28]
 8003590:	680d      	ldr	r5, [r1, #0]
 8003592:	f422 42e6 	bic.w	r2, r2, #29440	@ 0x7300
 8003596:	ea42 2205 	orr.w	r2, r2, r5, lsl #8
 800359a:	688d      	ldr	r5, [r1, #8]
 800359c:	f423 5300 	bic.w	r3, r3, #8192	@ 0x2000
 80035a0:	ea43 3305 	orr.w	r3, r3, r5, lsl #12
 80035a4:	4d06      	ldr	r5, [pc, #24]	@ (80035c0 <TIM_OC4_SetConfig+0x40>)
 80035a6:	42a8      	cmp	r0, r5
 80035a8:	bf02      	ittt	eq
 80035aa:	694d      	ldreq	r5, [r1, #20]
 80035ac:	f424 4480 	biceq.w	r4, r4, #16384	@ 0x4000
 80035b0:	ea44 1485 	orreq.w	r4, r4, r5, lsl #6
 80035b4:	6044      	str	r4, [r0, #4]
 80035b6:	61c2      	str	r2, [r0, #28]
 80035b8:	684a      	ldr	r2, [r1, #4]
 80035ba:	6402      	str	r2, [r0, #64]	@ 0x40
 80035bc:	6203      	str	r3, [r0, #32]
 80035be:	bd30      	pop	{r4, r5, pc}
 80035c0:	40010000 	.word	0x40010000

080035c4 <TIM_Base_SetConfig>:
 80035c4:	4a1d      	ldr	r2, [pc, #116]	@ (800363c <TIM_Base_SetConfig+0x78>)
 80035c6:	6803      	ldr	r3, [r0, #0]
 80035c8:	4290      	cmp	r0, r2
 80035ca:	d00e      	beq.n	80035ea <TIM_Base_SetConfig+0x26>
 80035cc:	f1b0 4f80 	cmp.w	r0, #1073741824	@ 0x40000000
 80035d0:	d00b      	beq.n	80035ea <TIM_Base_SetConfig+0x26>
 80035d2:	f5a2 427c 	sub.w	r2, r2, #64512	@ 0xfc00
 80035d6:	4290      	cmp	r0, r2
 80035d8:	d007      	beq.n	80035ea <TIM_Base_SetConfig+0x26>
 80035da:	f502 6280 	add.w	r2, r2, #1024	@ 0x400
 80035de:	4290      	cmp	r0, r2
 80035e0:	d003      	beq.n	80035ea <TIM_Base_SetConfig+0x26>
 80035e2:	f502 6280 	add.w	r2, r2, #1024	@ 0x400
 80035e6:	4290      	cmp	r0, r2
 80035e8:	d108      	bne.n	80035fc <TIM_Base_SetConfig+0x38>
 80035ea:	684a      	ldr	r2, [r1, #4]
 80035ec:	f023 0370 	bic.w	r3, r3, #112	@ 0x70
 80035f0:	4313      	orrs	r3, r2
 80035f2:	68ca      	ldr	r2, [r1, #12]
 80035f4:	f423 7340 	bic.w	r3, r3, #768	@ 0x300
 80035f8:	4313      	orrs	r3, r2
 80035fa:	e00a      	b.n	8003612 <TIM_Base_SetConfig+0x4e>
 80035fc:	4a10      	ldr	r2, [pc, #64]	@ (8003640 <TIM_Base_SetConfig+0x7c>)
 80035fe:	4290      	cmp	r0, r2
 8003600:	d0f7      	beq.n	80035f2 <TIM_Base_SetConfig+0x2e>
 8003602:	f502 6280 	add.w	r2, r2, #1024	@ 0x400
 8003606:	4290      	cmp	r0, r2
 8003608:	d0f3      	beq.n	80035f2 <TIM_Base_SetConfig+0x2e>
 800360a:	f502 6280 	add.w	r2, r2, #1024	@ 0x400
 800360e:	4290      	cmp	r0, r2
 8003610:	d0ef      	beq.n	80035f2 <TIM_Base_SetConfig+0x2e>
 8003612:	694a      	ldr	r2, [r1, #20]
 8003614:	f023 0380 	bic.w	r3, r3, #128	@ 0x80
 8003618:	4313      	orrs	r3, r2
 800361a:	688a      	ldr	r2, [r1, #8]
 800361c:	62c2      	str	r2, [r0, #44]	@ 0x2c
 800361e:	680a      	ldr	r2, [r1, #0]
 8003620:	6282      	str	r2, [r0, #40]	@ 0x28
 8003622:	4a06      	ldr	r2, [pc, #24]	@ (800363c <TIM_Base_SetConfig+0x78>)
 8003624:	4290      	cmp	r0, r2
 8003626:	bf04      	itt	eq
 8003628:	690a      	ldreq	r2, [r1, #16]
 800362a:	6302      	streq	r2, [r0, #48]	@ 0x30
 800362c:	6802      	ldr	r2, [r0, #0]
 800362e:	f042 0204 	orr.w	r2, r2, #4
 8003632:	6002      	str	r2, [r0, #0]
 8003634:	2201      	movs	r2, #1
 8003636:	6142      	str	r2, [r0, #20]
 8003638:	6003      	str	r3, [r0, #0]
 800363a:	4770      	bx	lr
 800363c:	40010000 	.word	0x40010000
 8003640:	40014000 	.word	0x40014000

08003644 <HAL_TIM_PWM_Init>:
 8003644:	b510      	push	{r4, lr}
 8003646:	4604      	mov	r4, r0
 8003648:	b330      	cbz	r0, 8003698 <HAL_TIM_PWM_Init+0x54>
 800364a:	f890 303d 	ldrb.w	r3, [r0, #61]	@ 0x3d
 800364e:	f003 02ff 	and.w	r2, r3, #255	@ 0xff
 8003652:	b91b      	cbnz	r3, 800365c <HAL_TIM_PWM_Init+0x18>
 8003654:	f880 203c 	strb.w	r2, [r0, #60]	@ 0x3c
 8003658:	f7fe fd46 	bl	80020e8 <HAL_TIM_PWM_MspInit>
 800365c:	2302      	movs	r3, #2
 800365e:	6820      	ldr	r0, [r4, #0]
 8003660:	f884 303d 	strb.w	r3, [r4, #61]	@ 0x3d
 8003664:	1d21      	adds	r1, r4, #4
 8003666:	f7ff ffad 	bl	80035c4 <TIM_Base_SetConfig>
 800366a:	2301      	movs	r3, #1
 800366c:	f884 3046 	strb.w	r3, [r4, #70]	@ 0x46
 8003670:	2000      	movs	r0, #0
 8003672:	f884 303e 	strb.w	r3, [r4, #62]	@ 0x3e
 8003676:	f884 303f 	strb.w	r3, [r4, #63]	@ 0x3f
 800367a:	f884 3040 	strb.w	r3, [r4, #64]	@ 0x40
 800367e:	f884 3041 	strb.w	r3, [r4, #65]	@ 0x41
 8003682:	f884 3042 	strb.w	r3, [r4, #66]	@ 0x42
 8003686:	f884 3043 	strb.w	r3, [r4, #67]	@ 0x43
 800368a:	f884 3044 	strb.w	r3, [r4, #68]	@ 0x44
 800368e:	f884 3045 	strb.w	r3, [r4, #69]	@ 0x45
 8003692:	f884 303d 	strb.w	r3, [r4, #61]	@ 0x3d
 8003696:	bd10      	pop	{r4, pc}
 8003698:	2001      	movs	r0, #1
 800369a:	e7fc      	b.n	8003696 <HAL_TIM_PWM_Init+0x52>

0800369c <TIM_OC2_SetConfig>:
 800369c:	6a03      	ldr	r3, [r0, #32]
 800369e:	6a02      	ldr	r2, [r0, #32]
 80036a0:	f022 0210 	bic.w	r2, r2, #16
 80036a4:	b570      	push	{r4, r5, r6, lr}
 80036a6:	6202      	str	r2, [r0, #32]
 80036a8:	6844      	ldr	r4, [r0, #4]
 80036aa:	6982      	ldr	r2, [r0, #24]
 80036ac:	680d      	ldr	r5, [r1, #0]
 80036ae:	f422 42e6 	bic.w	r2, r2, #29440	@ 0x7300
 80036b2:	ea42 2205 	orr.w	r2, r2, r5, lsl #8
 80036b6:	688d      	ldr	r5, [r1, #8]
 80036b8:	f023 0320 	bic.w	r3, r3, #32
 80036bc:	ea43 1305 	orr.w	r3, r3, r5, lsl #4
 80036c0:	4d0b      	ldr	r5, [pc, #44]	@ (80036f0 <TIM_OC2_SetConfig+0x54>)
 80036c2:	42a8      	cmp	r0, r5
 80036c4:	d10d      	bne.n	80036e2 <TIM_OC2_SetConfig+0x46>
 80036c6:	68cd      	ldr	r5, [r1, #12]
 80036c8:	f023 0380 	bic.w	r3, r3, #128	@ 0x80
 80036cc:	ea43 1305 	orr.w	r3, r3, r5, lsl #4
 80036d0:	e9d1 5605 	ldrd	r5, r6, [r1, #20]
 80036d4:	f424 6440 	bic.w	r4, r4, #3072	@ 0xc00
 80036d8:	4335      	orrs	r5, r6
 80036da:	f023 0340 	bic.w	r3, r3, #64	@ 0x40
 80036de:	ea44 0485 	orr.w	r4, r4, r5, lsl #2
 80036e2:	6044      	str	r4, [r0, #4]
 80036e4:	6182      	str	r2, [r0, #24]
 80036e6:	684a      	ldr	r2, [r1, #4]
 80036e8:	6382      	str	r2, [r0, #56]	@ 0x38
 80036ea:	6203      	str	r3, [r0, #32]
 80036ec:	bd70      	pop	{r4, r5, r6, pc}
 80036ee:	bf00      	nop
 80036f0:	40010000 	.word	0x40010000

080036f4 <HAL_TIM_PWM_ConfigChannel>:
 80036f4:	b538      	push	{r3, r4, r5, lr}
 80036f6:	f890 303c 	ldrb.w	r3, [r0, #60]	@ 0x3c
 80036fa:	2b01      	cmp	r3, #1
 80036fc:	4604      	mov	r4, r0
 80036fe:	d04f      	beq.n	80037a0 <HAL_TIM_PWM_ConfigChannel+0xac>
 8003700:	2001      	movs	r0, #1
 8003702:	2a08      	cmp	r2, #8
 8003704:	f884 003c 	strb.w	r0, [r4, #60]	@ 0x3c
 8003708:	d03a      	beq.n	8003780 <HAL_TIM_PWM_ConfigChannel+0x8c>
 800370a:	d806      	bhi.n	800371a <HAL_TIM_PWM_ConfigChannel+0x26>
 800370c:	b1ba      	cbz	r2, 800373e <HAL_TIM_PWM_ConfigChannel+0x4a>
 800370e:	2a04      	cmp	r2, #4
 8003710:	d026      	beq.n	8003760 <HAL_TIM_PWM_ConfigChannel+0x6c>
 8003712:	2300      	movs	r3, #0
 8003714:	f884 303c 	strb.w	r3, [r4, #60]	@ 0x3c
 8003718:	bd38      	pop	{r3, r4, r5, pc}
 800371a:	2a0c      	cmp	r2, #12
 800371c:	d1f9      	bne.n	8003712 <HAL_TIM_PWM_ConfigChannel+0x1e>
 800371e:	6820      	ldr	r0, [r4, #0]
 8003720:	f7ff ff2e 	bl	8003580 <TIM_OC4_SetConfig>
 8003724:	69c3      	ldr	r3, [r0, #28]
 8003726:	690a      	ldr	r2, [r1, #16]
 8003728:	f443 6300 	orr.w	r3, r3, #2048	@ 0x800
 800372c:	61c3      	str	r3, [r0, #28]
 800372e:	69c3      	ldr	r3, [r0, #28]
 8003730:	f423 6380 	bic.w	r3, r3, #1024	@ 0x400
 8003734:	61c3      	str	r3, [r0, #28]
 8003736:	69c3      	ldr	r3, [r0, #28]
 8003738:	ea43 2302 	orr.w	r3, r3, r2, lsl #8
 800373c:	e02e      	b.n	800379c <HAL_TIM_PWM_ConfigChannel+0xa8>
 800373e:	6820      	ldr	r0, [r4, #0]
 8003740:	f7ff fecc 	bl	80034dc <TIM_OC1_SetConfig>
 8003744:	6983      	ldr	r3, [r0, #24]
 8003746:	690a      	ldr	r2, [r1, #16]
 8003748:	f043 0308 	orr.w	r3, r3, #8
 800374c:	6183      	str	r3, [r0, #24]
 800374e:	6983      	ldr	r3, [r0, #24]
 8003750:	f023 0304 	bic.w	r3, r3, #4
 8003754:	6183      	str	r3, [r0, #24]
 8003756:	6983      	ldr	r3, [r0, #24]
 8003758:	4313      	orrs	r3, r2
 800375a:	6183      	str	r3, [r0, #24]
 800375c:	2000      	movs	r0, #0
 800375e:	e7d8      	b.n	8003712 <HAL_TIM_PWM_ConfigChannel+0x1e>
 8003760:	6820      	ldr	r0, [r4, #0]
 8003762:	f7ff ff9b 	bl	800369c <TIM_OC2_SetConfig>
 8003766:	6983      	ldr	r3, [r0, #24]
 8003768:	690a      	ldr	r2, [r1, #16]
 800376a:	f443 6300 	orr.w	r3, r3, #2048	@ 0x800
 800376e:	6183      	str	r3, [r0, #24]
 8003770:	6983      	ldr	r3, [r0, #24]
 8003772:	f423 6380 	bic.w	r3, r3, #1024	@ 0x400
 8003776:	6183      	str	r3, [r0, #24]
 8003778:	6983      	ldr	r3, [r0, #24]
 800377a:	ea43 2302 	orr.w	r3, r3, r2, lsl #8
 800377e:	e7ec      	b.n	800375a <HAL_TIM_PWM_ConfigChannel+0x66>
 8003780:	6820      	ldr	r0, [r4, #0]
 8003782:	f7ff fed3 	bl	800352c <TIM_OC3_SetConfig>
 8003786:	69c3      	ldr	r3, [r0, #28]
 8003788:	690a      	ldr	r2, [r1, #16]
 800378a:	f043 0308 	orr.w	r3, r3, #8
 800378e:	61c3      	str	r3, [r0, #28]
 8003790:	69c3      	ldr	r3, [r0, #28]
 8003792:	f023 0304 	bic.w	r3, r3, #4
 8003796:	61c3      	str	r3, [r0, #28]
 8003798:	69c3      	ldr	r3, [r0, #28]
 800379a:	4313      	orrs	r3, r2
 800379c:	61c3      	str	r3, [r0, #28]
 800379e:	e7dd      	b.n	800375c <HAL_TIM_PWM_ConfigChannel+0x68>
 80037a0:	2002      	movs	r0, #2
 80037a2:	e7b9      	b.n	8003718 <HAL_TIM_PWM_ConfigChannel+0x24>

080037a4 <TIM_CCxChannelCmd>:
 80037a4:	6a03      	ldr	r3, [r0, #32]
 80037a6:	b510      	push	{r4, lr}
 80037a8:	f001 011f 	and.w	r1, r1, #31
 80037ac:	2401      	movs	r4, #1
 80037ae:	408c      	lsls	r4, r1
 80037b0:	ea23 0304 	bic.w	r3, r3, r4
 80037b4:	6203      	str	r3, [r0, #32]
 80037b6:	6a03      	ldr	r3, [r0, #32]
 80037b8:	408a      	lsls	r2, r1
 80037ba:	431a      	orrs	r2, r3
 80037bc:	6202      	str	r2, [r0, #32]
 80037be:	bd10      	pop	{r4, pc}

080037c0 <HAL_TIM_OC_Start>:
 80037c0:	b508      	push	{r3, lr}
 80037c2:	b929      	cbnz	r1, 80037d0 <HAL_TIM_OC_Start+0x10>
 80037c4:	f890 303e 	ldrb.w	r3, [r0, #62]	@ 0x3e
 80037c8:	2b01      	cmp	r3, #1
 80037ca:	d01d      	beq.n	8003808 <HAL_TIM_OC_Start+0x48>
 80037cc:	2001      	movs	r0, #1
 80037ce:	e02e      	b.n	800382e <HAL_TIM_OC_Start+0x6e>
 80037d0:	2904      	cmp	r1, #4
 80037d2:	d107      	bne.n	80037e4 <HAL_TIM_OC_Start+0x24>
 80037d4:	f890 303f 	ldrb.w	r3, [r0, #63]	@ 0x3f
 80037d8:	2b01      	cmp	r3, #1
 80037da:	d1f7      	bne.n	80037cc <HAL_TIM_OC_Start+0xc>
 80037dc:	2302      	movs	r3, #2
 80037de:	f880 303f 	strb.w	r3, [r0, #63]	@ 0x3f
 80037e2:	e014      	b.n	800380e <HAL_TIM_OC_Start+0x4e>
 80037e4:	2908      	cmp	r1, #8
 80037e6:	d107      	bne.n	80037f8 <HAL_TIM_OC_Start+0x38>
 80037e8:	f890 3040 	ldrb.w	r3, [r0, #64]	@ 0x40
 80037ec:	2b01      	cmp	r3, #1
 80037ee:	d1ed      	bne.n	80037cc <HAL_TIM_OC_Start+0xc>
 80037f0:	2302      	movs	r3, #2
 80037f2:	f880 3040 	strb.w	r3, [r0, #64]	@ 0x40
 80037f6:	e00a      	b.n	800380e <HAL_TIM_OC_Start+0x4e>
 80037f8:	f890 3041 	ldrb.w	r3, [r0, #65]	@ 0x41
 80037fc:	2b01      	cmp	r3, #1
 80037fe:	d1e5      	bne.n	80037cc <HAL_TIM_OC_Start+0xc>
 8003800:	2302      	movs	r3, #2
 8003802:	f880 3041 	strb.w	r3, [r0, #65]	@ 0x41
 8003806:	e002      	b.n	800380e <HAL_TIM_OC_Start+0x4e>
 8003808:	2302      	movs	r3, #2
 800380a:	f880 303e 	strb.w	r3, [r0, #62]	@ 0x3e
 800380e:	6800      	ldr	r0, [r0, #0]
 8003810:	2201      	movs	r2, #1
 8003812:	f7ff ffc7 	bl	80037a4 <TIM_CCxChannelCmd>
 8003816:	4b13      	ldr	r3, [pc, #76]	@ (8003864 <HAL_TIM_OC_Start+0xa4>)
 8003818:	4298      	cmp	r0, r3
 800381a:	d009      	beq.n	8003830 <HAL_TIM_OC_Start+0x70>
 800381c:	f1b0 4f80 	cmp.w	r0, #1073741824	@ 0x40000000
 8003820:	d10b      	bne.n	800383a <HAL_TIM_OC_Start+0x7a>
 8003822:	6883      	ldr	r3, [r0, #8]
 8003824:	f003 0307 	and.w	r3, r3, #7
 8003828:	2b06      	cmp	r3, #6
 800382a:	d115      	bne.n	8003858 <HAL_TIM_OC_Start+0x98>
 800382c:	2000      	movs	r0, #0
 800382e:	bd08      	pop	{r3, pc}
 8003830:	6c43      	ldr	r3, [r0, #68]	@ 0x44
 8003832:	f443 4300 	orr.w	r3, r3, #32768	@ 0x8000
 8003836:	6443      	str	r3, [r0, #68]	@ 0x44
 8003838:	e7f3      	b.n	8003822 <HAL_TIM_OC_Start+0x62>
 800383a:	4b0b      	ldr	r3, [pc, #44]	@ (8003868 <HAL_TIM_OC_Start+0xa8>)
 800383c:	4298      	cmp	r0, r3
 800383e:	d0f0      	beq.n	8003822 <HAL_TIM_OC_Start+0x62>
 8003840:	f503 6380 	add.w	r3, r3, #1024	@ 0x400
 8003844:	4298      	cmp	r0, r3
 8003846:	d0ec      	beq.n	8003822 <HAL_TIM_OC_Start+0x62>
 8003848:	f503 6380 	add.w	r3, r3, #1024	@ 0x400
 800384c:	4298      	cmp	r0, r3
 800384e:	d0e8      	beq.n	8003822 <HAL_TIM_OC_Start+0x62>
 8003850:	f503 339a 	add.w	r3, r3, #78848	@ 0x13400
 8003854:	4298      	cmp	r0, r3
 8003856:	d0e4      	beq.n	8003822 <HAL_TIM_OC_Start+0x62>
 8003858:	6803      	ldr	r3, [r0, #0]
 800385a:	f043 0301 	orr.w	r3, r3, #1
 800385e:	6003      	str	r3, [r0, #0]
 8003860:	e7e4      	b.n	800382c <HAL_TIM_OC_Start+0x6c>
 8003862:	bf00      	nop
 8003864:	40010000 	.word	0x40010000
 8003868:	40000400 	.word	0x40000400

0800386c <HAL_TIM_PWM_Start>:
 800386c:	f7ff bfa8 	b.w	80037c0 <HAL_TIM_OC_Start>

08003870 <HAL_TIMEx_MasterConfigSynchronization>:
 8003870:	b530      	push	{r4, r5, lr}
 8003872:	f890 303c 	ldrb.w	r3, [r0, #60]	@ 0x3c
 8003876:	2b01      	cmp	r3, #1
 8003878:	4602      	mov	r2, r0
 800387a:	f04f 0002 	mov.w	r0, #2
 800387e:	d02a      	beq.n	80038d6 <HAL_TIMEx_MasterConfigSynchronization+0x66>
 8003880:	6813      	ldr	r3, [r2, #0]
 8003882:	f882 003d 	strb.w	r0, [r2, #61]	@ 0x3d
 8003886:	685c      	ldr	r4, [r3, #4]
 8003888:	680d      	ldr	r5, [r1, #0]
 800388a:	6898      	ldr	r0, [r3, #8]
 800388c:	f024 0470 	bic.w	r4, r4, #112	@ 0x70
 8003890:	432c      	orrs	r4, r5
 8003892:	605c      	str	r4, [r3, #4]
 8003894:	4c10      	ldr	r4, [pc, #64]	@ (80038d8 <HAL_TIMEx_MasterConfigSynchronization+0x68>)
 8003896:	42a3      	cmp	r3, r4
 8003898:	d012      	beq.n	80038c0 <HAL_TIMEx_MasterConfigSynchronization+0x50>
 800389a:	f1b3 4f80 	cmp.w	r3, #1073741824	@ 0x40000000
 800389e:	d00f      	beq.n	80038c0 <HAL_TIMEx_MasterConfigSynchronization+0x50>
 80038a0:	f5a4 447c 	sub.w	r4, r4, #64512	@ 0xfc00
 80038a4:	42a3      	cmp	r3, r4
 80038a6:	d00b      	beq.n	80038c0 <HAL_TIMEx_MasterConfigSynchronization+0x50>
 80038a8:	f504 6480 	add.w	r4, r4, #1024	@ 0x400
 80038ac:	42a3      	cmp	r3, r4
 80038ae:	d007      	beq.n	80038c0 <HAL_TIMEx_MasterConfigSynchronization+0x50>
 80038b0:	f504 6480 	add.w	r4, r4, #1024	@ 0x400
 80038b4:	42a3      	cmp	r3, r4
 80038b6:	d003      	beq.n	80038c0 <HAL_TIMEx_MasterConfigSynchronization+0x50>
 80038b8:	f504 349a 	add.w	r4, r4, #78848	@ 0x13400
 80038bc:	42a3      	cmp	r3, r4
 80038be:	d104      	bne.n	80038ca <HAL_TIMEx_MasterConfigSynchronization+0x5a>
 80038c0:	6849      	ldr	r1, [r1, #4]
 80038c2:	f020 0080 	bic.w	r0, r0, #128	@ 0x80
 80038c6:	4301      	orrs	r1, r0
 80038c8:	6099      	str	r1, [r3, #8]
 80038ca:	2301      	movs	r3, #1
 80038cc:	2000      	movs	r0, #0
 80038ce:	f882 303d 	strb.w	r3, [r2, #61]	@ 0x3d
 80038d2:	f882 003c 	strb.w	r0, [r2, #60]	@ 0x3c
 80038d6:	bd30      	pop	{r4, r5, pc}
 80038d8:	40010000 	.word	0x40010000

080038dc <HAL_TIMEx_ConfigBreakDeadTime>:
 80038dc:	f890 303c 	ldrb.w	r3, [r0, #60]	@ 0x3c
 80038e0:	2b01      	cmp	r3, #1
 80038e2:	4602      	mov	r2, r0
 80038e4:	d01e      	beq.n	8003924 <HAL_TIMEx_ConfigBreakDeadTime+0x48>
 80038e6:	68cb      	ldr	r3, [r1, #12]
 80038e8:	6888      	ldr	r0, [r1, #8]
 80038ea:	f423 7340 	bic.w	r3, r3, #768	@ 0x300
 80038ee:	4303      	orrs	r3, r0
 80038f0:	6848      	ldr	r0, [r1, #4]
 80038f2:	f423 6380 	bic.w	r3, r3, #1024	@ 0x400
 80038f6:	4303      	orrs	r3, r0
 80038f8:	6808      	ldr	r0, [r1, #0]
 80038fa:	f423 6300 	bic.w	r3, r3, #2048	@ 0x800
 80038fe:	4303      	orrs	r3, r0
 8003900:	6908      	ldr	r0, [r1, #16]
 8003902:	f423 5380 	bic.w	r3, r3, #4096	@ 0x1000
 8003906:	4303      	orrs	r3, r0
 8003908:	6948      	ldr	r0, [r1, #20]
 800390a:	69c9      	ldr	r1, [r1, #28]
 800390c:	f423 5300 	bic.w	r3, r3, #8192	@ 0x2000
 8003910:	4303      	orrs	r3, r0
 8003912:	f423 4380 	bic.w	r3, r3, #16384	@ 0x4000
 8003916:	430b      	orrs	r3, r1
 8003918:	6811      	ldr	r1, [r2, #0]
 800391a:	2000      	movs	r0, #0
 800391c:	644b      	str	r3, [r1, #68]	@ 0x44
 800391e:	f882 003c 	strb.w	r0, [r2, #60]	@ 0x3c
 8003922:	4770      	bx	lr
 8003924:	2002      	movs	r0, #2
 8003926:	4770      	bx	lr

08003928 <UART_EndRxTransfer>:
 8003928:	6802      	ldr	r2, [r0, #0]
 800392a:	f102 030c 	add.w	r3, r2, #12
 800392e:	e853 3f00 	ldrex	r3, [r3]
 8003932:	f423 7390 	bic.w	r3, r3, #288	@ 0x120
 8003936:	320c      	adds	r2, #12
 8003938:	e842 3100 	strex	r1, r3, [r2]
 800393c:	6802      	ldr	r2, [r0, #0]
 800393e:	2900      	cmp	r1, #0
 8003940:	d1f2      	bne.n	8003928 <UART_EndRxTransfer>
 8003942:	f102 0314 	add.w	r3, r2, #20
 8003946:	e853 3f00 	ldrex	r3, [r3]
 800394a:	f023 0301 	bic.w	r3, r3, #1
 800394e:	f102 0c14 	add.w	ip, r2, #20
 8003952:	e84c 3100 	strex	r1, r3, [ip]
 8003956:	2900      	cmp	r1, #0
 8003958:	d1f3      	bne.n	8003942 <UART_EndRxTransfer+0x1a>
 800395a:	6b03      	ldr	r3, [r0, #48]	@ 0x30
 800395c:	2b01      	cmp	r3, #1
 800395e:	d10b      	bne.n	8003978 <UART_EndRxTransfer+0x50>
 8003960:	f102 030c 	add.w	r3, r2, #12
 8003964:	e853 3f00 	ldrex	r3, [r3]
 8003968:	f023 0310 	bic.w	r3, r3, #16
 800396c:	f102 0c0c 	add.w	ip, r2, #12
 8003970:	e84c 3100 	strex	r1, r3, [ip]
 8003974:	2900      	cmp	r1, #0
 8003976:	d1f3      	bne.n	8003960 <UART_EndRxTransfer+0x38>
 8003978:	2320      	movs	r3, #32
 800397a:	f880 3042 	strb.w	r3, [r0, #66]	@ 0x42
 800397e:	2300      	movs	r3, #0
 8003980:	6303      	str	r3, [r0, #48]	@ 0x30
 8003982:	4770      	bx	lr

08003984 <UART_SetConfig>:
 8003984:	6802      	ldr	r2, [r0, #0]
 8003986:	68c1      	ldr	r1, [r0, #12]
 8003988:	b538      	push	{r3, r4, r5, lr}
 800398a:	6913      	ldr	r3, [r2, #16]
 800398c:	f423 5340 	bic.w	r3, r3, #12288	@ 0x3000
 8003990:	430b      	orrs	r3, r1
 8003992:	6113      	str	r3, [r2, #16]
 8003994:	4605      	mov	r5, r0
 8003996:	6883      	ldr	r3, [r0, #8]
 8003998:	6900      	ldr	r0, [r0, #16]
 800399a:	68d1      	ldr	r1, [r2, #12]
 800399c:	4303      	orrs	r3, r0
 800399e:	6968      	ldr	r0, [r5, #20]
 80039a0:	4303      	orrs	r3, r0
 80039a2:	69e8      	ldr	r0, [r5, #28]
 80039a4:	f421 4116 	bic.w	r1, r1, #38400	@ 0x9600
 80039a8:	f021 010c 	bic.w	r1, r1, #12
 80039ac:	4303      	orrs	r3, r0
 80039ae:	430b      	orrs	r3, r1
 80039b0:	60d3      	str	r3, [r2, #12]
 80039b2:	6953      	ldr	r3, [r2, #20]
 80039b4:	69a9      	ldr	r1, [r5, #24]
 80039b6:	f423 7340 	bic.w	r3, r3, #768	@ 0x300
 80039ba:	430b      	orrs	r3, r1
 80039bc:	6153      	str	r3, [r2, #20]
 80039be:	4b1f      	ldr	r3, [pc, #124]	@ (8003a3c <UART_SetConfig+0xb8>)
 80039c0:	429a      	cmp	r2, r3
 80039c2:	d003      	beq.n	80039cc <UART_SetConfig+0x48>
 80039c4:	f503 6380 	add.w	r3, r3, #1024	@ 0x400
 80039c8:	429a      	cmp	r2, r3
 80039ca:	d124      	bne.n	8003a16 <UART_SetConfig+0x92>
 80039cc:	f7ff fd76 	bl	80034bc <HAL_RCC_GetPCLK2Freq>
 80039d0:	69ea      	ldr	r2, [r5, #28]
 80039d2:	2119      	movs	r1, #25
 80039d4:	f5b2 4f00 	cmp.w	r2, #32768	@ 0x8000
 80039d8:	e9d5 4300 	ldrd	r4, r3, [r5]
 80039dc:	fba0 0101 	umull	r0, r1, r0, r1
 80039e0:	d11c      	bne.n	8003a1c <UART_SetConfig+0x98>
 80039e2:	18da      	adds	r2, r3, r3
 80039e4:	f04f 0500 	mov.w	r5, #0
 80039e8:	eb45 0305 	adc.w	r3, r5, r5
 80039ec:	f7fc fbfc 	bl	80001e8 <__aeabi_uldivmod>
 80039f0:	2264      	movs	r2, #100	@ 0x64
 80039f2:	fbb0 f1f2 	udiv	r1, r0, r2
 80039f6:	fb02 0311 	mls	r3, r2, r1, r0
 80039fa:	00db      	lsls	r3, r3, #3
 80039fc:	3332      	adds	r3, #50	@ 0x32
 80039fe:	fbb3 f3f2 	udiv	r3, r3, r2
 8003a02:	f003 0207 	and.w	r2, r3, #7
 8003a06:	005b      	lsls	r3, r3, #1
 8003a08:	eb02 1201 	add.w	r2, r2, r1, lsl #4
 8003a0c:	f403 73f8 	and.w	r3, r3, #496	@ 0x1f0
 8003a10:	4413      	add	r3, r2
 8003a12:	60a3      	str	r3, [r4, #8]
 8003a14:	bd38      	pop	{r3, r4, r5, pc}
 8003a16:	f7ff fd41 	bl	800349c <HAL_RCC_GetPCLK1Freq>
 8003a1a:	e7d9      	b.n	80039d0 <UART_SetConfig+0x4c>
 8003a1c:	009a      	lsls	r2, r3, #2
 8003a1e:	0f9b      	lsrs	r3, r3, #30
 8003a20:	f7fc fbe2 	bl	80001e8 <__aeabi_uldivmod>
 8003a24:	2264      	movs	r2, #100	@ 0x64
 8003a26:	fbb0 f1f2 	udiv	r1, r0, r2
 8003a2a:	fb02 0311 	mls	r3, r2, r1, r0
 8003a2e:	011b      	lsls	r3, r3, #4
 8003a30:	3332      	adds	r3, #50	@ 0x32
 8003a32:	fbb3 f3f2 	udiv	r3, r3, r2
 8003a36:	eb03 1301 	add.w	r3, r3, r1, lsl #4
 8003a3a:	e7ea      	b.n	8003a12 <UART_SetConfig+0x8e>
 8003a3c:	40011000 	.word	0x40011000

08003a40 <UART_WaitOnFlagUntilTimeout.constprop.0>:
 8003a40:	b5f7      	push	{r0, r1, r2, r4, r5, r6, r7, lr}
 8003a42:	4605      	mov	r5, r0
 8003a44:	460c      	mov	r4, r1
 8003a46:	4617      	mov	r7, r2
 8003a48:	461e      	mov	r6, r3
 8003a4a:	682a      	ldr	r2, [r5, #0]
 8003a4c:	6813      	ldr	r3, [r2, #0]
 8003a4e:	ea34 0303 	bics.w	r3, r4, r3
 8003a52:	d101      	bne.n	8003a58 <UART_WaitOnFlagUntilTimeout.constprop.0+0x18>
 8003a54:	2000      	movs	r0, #0
 8003a56:	e021      	b.n	8003a9c <UART_WaitOnFlagUntilTimeout.constprop.0+0x5c>
 8003a58:	1c70      	adds	r0, r6, #1
 8003a5a:	d0f7      	beq.n	8003a4c <UART_WaitOnFlagUntilTimeout.constprop.0+0xc>
 8003a5c:	f7fe fcc2 	bl	80023e4 <HAL_GetTick>
 8003a60:	1bc0      	subs	r0, r0, r7
 8003a62:	4286      	cmp	r6, r0
 8003a64:	d31c      	bcc.n	8003aa0 <UART_WaitOnFlagUntilTimeout.constprop.0+0x60>
 8003a66:	b1de      	cbz	r6, 8003aa0 <UART_WaitOnFlagUntilTimeout.constprop.0+0x60>
 8003a68:	682b      	ldr	r3, [r5, #0]
 8003a6a:	68da      	ldr	r2, [r3, #12]
 8003a6c:	0751      	lsls	r1, r2, #29
 8003a6e:	d5ec      	bpl.n	8003a4a <UART_WaitOnFlagUntilTimeout.constprop.0+0xa>
 8003a70:	2c80      	cmp	r4, #128	@ 0x80
 8003a72:	d0ea      	beq.n	8003a4a <UART_WaitOnFlagUntilTimeout.constprop.0+0xa>
 8003a74:	2c40      	cmp	r4, #64	@ 0x40
 8003a76:	d0e8      	beq.n	8003a4a <UART_WaitOnFlagUntilTimeout.constprop.0+0xa>
 8003a78:	681a      	ldr	r2, [r3, #0]
 8003a7a:	0712      	lsls	r2, r2, #28
 8003a7c:	d5e5      	bpl.n	8003a4a <UART_WaitOnFlagUntilTimeout.constprop.0+0xa>
 8003a7e:	2400      	movs	r4, #0
 8003a80:	9401      	str	r4, [sp, #4]
 8003a82:	681a      	ldr	r2, [r3, #0]
 8003a84:	9201      	str	r2, [sp, #4]
 8003a86:	685b      	ldr	r3, [r3, #4]
 8003a88:	9301      	str	r3, [sp, #4]
 8003a8a:	4628      	mov	r0, r5
 8003a8c:	9b01      	ldr	r3, [sp, #4]
 8003a8e:	f7ff ff4b 	bl	8003928 <UART_EndRxTransfer>
 8003a92:	2308      	movs	r3, #8
 8003a94:	646b      	str	r3, [r5, #68]	@ 0x44
 8003a96:	f885 4040 	strb.w	r4, [r5, #64]	@ 0x40
 8003a9a:	2001      	movs	r0, #1
 8003a9c:	b003      	add	sp, #12
 8003a9e:	bdf0      	pop	{r4, r5, r6, r7, pc}
 8003aa0:	2003      	movs	r0, #3
 8003aa2:	e7fb      	b.n	8003a9c <UART_WaitOnFlagUntilTimeout.constprop.0+0x5c>

08003aa4 <HAL_UART_Init>:
 8003aa4:	b510      	push	{r4, lr}
 8003aa6:	4604      	mov	r4, r0
 8003aa8:	b348      	cbz	r0, 8003afe <HAL_UART_Init+0x5a>
 8003aaa:	f890 3041 	ldrb.w	r3, [r0, #65]	@ 0x41
 8003aae:	f003 02ff 	and.w	r2, r3, #255	@ 0xff
 8003ab2:	b91b      	cbnz	r3, 8003abc <HAL_UART_Init+0x18>
 8003ab4:	f880 2040 	strb.w	r2, [r0, #64]	@ 0x40
 8003ab8:	f7fe fbe2 	bl	8002280 <HAL_UART_MspInit>
 8003abc:	6822      	ldr	r2, [r4, #0]
 8003abe:	2324      	movs	r3, #36	@ 0x24
 8003ac0:	f884 3041 	strb.w	r3, [r4, #65]	@ 0x41
 8003ac4:	68d3      	ldr	r3, [r2, #12]
 8003ac6:	f423 5300 	bic.w	r3, r3, #8192	@ 0x2000
 8003aca:	60d3      	str	r3, [r2, #12]
 8003acc:	4620      	mov	r0, r4
 8003ace:	f7ff ff59 	bl	8003984 <UART_SetConfig>
 8003ad2:	6823      	ldr	r3, [r4, #0]
 8003ad4:	691a      	ldr	r2, [r3, #16]
 8003ad6:	f422 4290 	bic.w	r2, r2, #18432	@ 0x4800
 8003ada:	611a      	str	r2, [r3, #16]
 8003adc:	695a      	ldr	r2, [r3, #20]
 8003ade:	f022 022a 	bic.w	r2, r2, #42	@ 0x2a
 8003ae2:	615a      	str	r2, [r3, #20]
 8003ae4:	68da      	ldr	r2, [r3, #12]
 8003ae6:	f442 5200 	orr.w	r2, r2, #8192	@ 0x2000
 8003aea:	60da      	str	r2, [r3, #12]
 8003aec:	2000      	movs	r0, #0
 8003aee:	2320      	movs	r3, #32
 8003af0:	6460      	str	r0, [r4, #68]	@ 0x44
 8003af2:	f884 3041 	strb.w	r3, [r4, #65]	@ 0x41
 8003af6:	f884 3042 	strb.w	r3, [r4, #66]	@ 0x42
 8003afa:	6360      	str	r0, [r4, #52]	@ 0x34
 8003afc:	bd10      	pop	{r4, pc}
 8003afe:	2001      	movs	r0, #1
 8003b00:	e7fc      	b.n	8003afc <HAL_UART_Init+0x58>

08003b02 <HAL_UART_Transmit>:
 8003b02:	e92d 43f8 	stmdb	sp!, {r3, r4, r5, r6, r7, r8, r9, lr}
 8003b06:	4698      	mov	r8, r3
 8003b08:	f890 3041 	ldrb.w	r3, [r0, #65]	@ 0x41
 8003b0c:	2b20      	cmp	r3, #32
 8003b0e:	4604      	mov	r4, r0
 8003b10:	460e      	mov	r6, r1
 8003b12:	4617      	mov	r7, r2
 8003b14:	d13f      	bne.n	8003b96 <HAL_UART_Transmit+0x94>
 8003b16:	2900      	cmp	r1, #0
 8003b18:	d03f      	beq.n	8003b9a <HAL_UART_Transmit+0x98>
 8003b1a:	2a00      	cmp	r2, #0
 8003b1c:	d03d      	beq.n	8003b9a <HAL_UART_Transmit+0x98>
 8003b1e:	2321      	movs	r3, #33	@ 0x21
 8003b20:	2500      	movs	r5, #0
 8003b22:	6445      	str	r5, [r0, #68]	@ 0x44
 8003b24:	f880 3041 	strb.w	r3, [r0, #65]	@ 0x41
 8003b28:	f7fe fc5c 	bl	80023e4 <HAL_GetTick>
 8003b2c:	68a3      	ldr	r3, [r4, #8]
 8003b2e:	84a7      	strh	r7, [r4, #36]	@ 0x24
 8003b30:	f5b3 5f80 	cmp.w	r3, #4096	@ 0x1000
 8003b34:	4681      	mov	r9, r0
 8003b36:	84e7      	strh	r7, [r4, #38]	@ 0x26
 8003b38:	d103      	bne.n	8003b42 <HAL_UART_Transmit+0x40>
 8003b3a:	6923      	ldr	r3, [r4, #16]
 8003b3c:	b90b      	cbnz	r3, 8003b42 <HAL_UART_Transmit+0x40>
 8003b3e:	4635      	mov	r5, r6
 8003b40:	461e      	mov	r6, r3
 8003b42:	8ce3      	ldrh	r3, [r4, #38]	@ 0x26
 8003b44:	b29b      	uxth	r3, r3
 8003b46:	b953      	cbnz	r3, 8003b5e <HAL_UART_Transmit+0x5c>
 8003b48:	4643      	mov	r3, r8
 8003b4a:	464a      	mov	r2, r9
 8003b4c:	2140      	movs	r1, #64	@ 0x40
 8003b4e:	4620      	mov	r0, r4
 8003b50:	f7ff ff76 	bl	8003a40 <UART_WaitOnFlagUntilTimeout.constprop.0>
 8003b54:	2320      	movs	r3, #32
 8003b56:	b950      	cbnz	r0, 8003b6e <HAL_UART_Transmit+0x6c>
 8003b58:	f884 3041 	strb.w	r3, [r4, #65]	@ 0x41
 8003b5c:	e00a      	b.n	8003b74 <HAL_UART_Transmit+0x72>
 8003b5e:	4643      	mov	r3, r8
 8003b60:	464a      	mov	r2, r9
 8003b62:	2180      	movs	r1, #128	@ 0x80
 8003b64:	4620      	mov	r0, r4
 8003b66:	f7ff ff6b 	bl	8003a40 <UART_WaitOnFlagUntilTimeout.constprop.0>
 8003b6a:	b128      	cbz	r0, 8003b78 <HAL_UART_Transmit+0x76>
 8003b6c:	2320      	movs	r3, #32
 8003b6e:	f884 3041 	strb.w	r3, [r4, #65]	@ 0x41
 8003b72:	2003      	movs	r0, #3
 8003b74:	e8bd 83f8 	ldmia.w	sp!, {r3, r4, r5, r6, r7, r8, r9, pc}
 8003b78:	6822      	ldr	r2, [r4, #0]
 8003b7a:	b94e      	cbnz	r6, 8003b90 <HAL_UART_Transmit+0x8e>
 8003b7c:	f835 3b02 	ldrh.w	r3, [r5], #2
 8003b80:	f3c3 0308 	ubfx	r3, r3, #0, #9
 8003b84:	6053      	str	r3, [r2, #4]
 8003b86:	8ce1      	ldrh	r1, [r4, #38]	@ 0x26
 8003b88:	3901      	subs	r1, #1
 8003b8a:	b289      	uxth	r1, r1
 8003b8c:	84e1      	strh	r1, [r4, #38]	@ 0x26
 8003b8e:	e7d8      	b.n	8003b42 <HAL_UART_Transmit+0x40>
 8003b90:	f816 3b01 	ldrb.w	r3, [r6], #1
 8003b94:	e7f6      	b.n	8003b84 <HAL_UART_Transmit+0x82>
 8003b96:	2002      	movs	r0, #2
 8003b98:	e7ec      	b.n	8003b74 <HAL_UART_Transmit+0x72>
 8003b9a:	2001      	movs	r0, #1
 8003b9c:	e7ea      	b.n	8003b74 <HAL_UART_Transmit+0x72>

08003b9e <HAL_UART_Receive>:
 8003b9e:	e92d 43f8 	stmdb	sp!, {r3, r4, r5, r6, r7, r8, r9, lr}
 8003ba2:	461f      	mov	r7, r3
 8003ba4:	f890 3042 	ldrb.w	r3, [r0, #66]	@ 0x42
 8003ba8:	2b20      	cmp	r3, #32
 8003baa:	4604      	mov	r4, r0
 8003bac:	460e      	mov	r6, r1
 8003bae:	4691      	mov	r9, r2
 8003bb0:	d148      	bne.n	8003c44 <HAL_UART_Receive+0xa6>
 8003bb2:	2900      	cmp	r1, #0
 8003bb4:	d048      	beq.n	8003c48 <HAL_UART_Receive+0xaa>
 8003bb6:	2a00      	cmp	r2, #0
 8003bb8:	d046      	beq.n	8003c48 <HAL_UART_Receive+0xaa>
 8003bba:	2322      	movs	r3, #34	@ 0x22
 8003bbc:	2500      	movs	r5, #0
 8003bbe:	6445      	str	r5, [r0, #68]	@ 0x44
 8003bc0:	f880 3042 	strb.w	r3, [r0, #66]	@ 0x42
 8003bc4:	6305      	str	r5, [r0, #48]	@ 0x30
 8003bc6:	f7fe fc0d 	bl	80023e4 <HAL_GetTick>
 8003bca:	68a3      	ldr	r3, [r4, #8]
 8003bcc:	f8a4 902c 	strh.w	r9, [r4, #44]	@ 0x2c
 8003bd0:	f5b3 5f80 	cmp.w	r3, #4096	@ 0x1000
 8003bd4:	4680      	mov	r8, r0
 8003bd6:	f8a4 902e 	strh.w	r9, [r4, #46]	@ 0x2e
 8003bda:	d103      	bne.n	8003be4 <HAL_UART_Receive+0x46>
 8003bdc:	6923      	ldr	r3, [r4, #16]
 8003bde:	b90b      	cbnz	r3, 8003be4 <HAL_UART_Receive+0x46>
 8003be0:	4635      	mov	r5, r6
 8003be2:	461e      	mov	r6, r3
 8003be4:	8de0      	ldrh	r0, [r4, #46]	@ 0x2e
 8003be6:	b280      	uxth	r0, r0
 8003be8:	b918      	cbnz	r0, 8003bf2 <HAL_UART_Receive+0x54>
 8003bea:	2320      	movs	r3, #32
 8003bec:	f884 3042 	strb.w	r3, [r4, #66]	@ 0x42
 8003bf0:	e00a      	b.n	8003c08 <HAL_UART_Receive+0x6a>
 8003bf2:	463b      	mov	r3, r7
 8003bf4:	4642      	mov	r2, r8
 8003bf6:	2120      	movs	r1, #32
 8003bf8:	4620      	mov	r0, r4
 8003bfa:	f7ff ff21 	bl	8003a40 <UART_WaitOnFlagUntilTimeout.constprop.0>
 8003bfe:	b128      	cbz	r0, 8003c0c <HAL_UART_Receive+0x6e>
 8003c00:	2320      	movs	r3, #32
 8003c02:	f884 3042 	strb.w	r3, [r4, #66]	@ 0x42
 8003c06:	2003      	movs	r0, #3
 8003c08:	e8bd 83f8 	ldmia.w	sp!, {r3, r4, r5, r6, r7, r8, r9, pc}
 8003c0c:	6823      	ldr	r3, [r4, #0]
 8003c0e:	b94e      	cbnz	r6, 8003c24 <HAL_UART_Receive+0x86>
 8003c10:	685b      	ldr	r3, [r3, #4]
 8003c12:	f3c3 0308 	ubfx	r3, r3, #0, #9
 8003c16:	f825 3b02 	strh.w	r3, [r5], #2
 8003c1a:	8de3      	ldrh	r3, [r4, #46]	@ 0x2e
 8003c1c:	3b01      	subs	r3, #1
 8003c1e:	b29b      	uxth	r3, r3
 8003c20:	85e3      	strh	r3, [r4, #46]	@ 0x2e
 8003c22:	e7df      	b.n	8003be4 <HAL_UART_Receive+0x46>
 8003c24:	68a2      	ldr	r2, [r4, #8]
 8003c26:	f5b2 5f80 	cmp.w	r2, #4096	@ 0x1000
 8003c2a:	d002      	beq.n	8003c32 <HAL_UART_Receive+0x94>
 8003c2c:	b932      	cbnz	r2, 8003c3c <HAL_UART_Receive+0x9e>
 8003c2e:	6922      	ldr	r2, [r4, #16]
 8003c30:	b922      	cbnz	r2, 8003c3c <HAL_UART_Receive+0x9e>
 8003c32:	6859      	ldr	r1, [r3, #4]
 8003c34:	b2c9      	uxtb	r1, r1
 8003c36:	f806 1b01 	strb.w	r1, [r6], #1
 8003c3a:	e7ee      	b.n	8003c1a <HAL_UART_Receive+0x7c>
 8003c3c:	6859      	ldr	r1, [r3, #4]
 8003c3e:	f001 017f 	and.w	r1, r1, #127	@ 0x7f
 8003c42:	e7f8      	b.n	8003c36 <HAL_UART_Receive+0x98>
 8003c44:	2002      	movs	r0, #2
 8003c46:	e7df      	b.n	8003c08 <HAL_UART_Receive+0x6a>
 8003c48:	2001      	movs	r0, #1
 8003c4a:	e7dd      	b.n	8003c08 <HAL_UART_Receive+0x6a>

08003c4c <HAL_UART_AbortReceive>:
 8003c4c:	b510      	push	{r4, lr}
 8003c4e:	4604      	mov	r4, r0
 8003c50:	6822      	ldr	r2, [r4, #0]
 8003c52:	f102 030c 	add.w	r3, r2, #12
 8003c56:	e853 3f00 	ldrex	r3, [r3]
 8003c5a:	f423 7390 	bic.w	r3, r3, #288	@ 0x120
 8003c5e:	320c      	adds	r2, #12
 8003c60:	e842 3100 	strex	r1, r3, [r2]
 8003c64:	6823      	ldr	r3, [r4, #0]
 8003c66:	2900      	cmp	r1, #0
 8003c68:	d1f2      	bne.n	8003c50 <HAL_UART_AbortReceive+0x4>
 8003c6a:	f103 0214 	add.w	r2, r3, #20
 8003c6e:	e852 2f00 	ldrex	r2, [r2]
 8003c72:	f022 0201 	bic.w	r2, r2, #1
 8003c76:	f103 0014 	add.w	r0, r3, #20
 8003c7a:	e840 2100 	strex	r1, r2, [r0]
 8003c7e:	2900      	cmp	r1, #0
 8003c80:	d1f3      	bne.n	8003c6a <HAL_UART_AbortReceive+0x1e>
 8003c82:	6b22      	ldr	r2, [r4, #48]	@ 0x30
 8003c84:	2a01      	cmp	r2, #1
 8003c86:	d10b      	bne.n	8003ca0 <HAL_UART_AbortReceive+0x54>
 8003c88:	f103 020c 	add.w	r2, r3, #12
 8003c8c:	e852 2f00 	ldrex	r2, [r2]
 8003c90:	f022 0210 	bic.w	r2, r2, #16
 8003c94:	f103 000c 	add.w	r0, r3, #12
 8003c98:	e840 2100 	strex	r1, r2, [r0]
 8003c9c:	2900      	cmp	r1, #0
 8003c9e:	d1f3      	bne.n	8003c88 <HAL_UART_AbortReceive+0x3c>
 8003ca0:	695a      	ldr	r2, [r3, #20]
 8003ca2:	0652      	lsls	r2, r2, #25
 8003ca4:	d51a      	bpl.n	8003cdc <HAL_UART_AbortReceive+0x90>
 8003ca6:	f103 0214 	add.w	r2, r3, #20
 8003caa:	e852 2f00 	ldrex	r2, [r2]
 8003cae:	f022 0240 	bic.w	r2, r2, #64	@ 0x40
 8003cb2:	f103 0014 	add.w	r0, r3, #20
 8003cb6:	e840 2100 	strex	r1, r2, [r0]
 8003cba:	2900      	cmp	r1, #0
 8003cbc:	d1f3      	bne.n	8003ca6 <HAL_UART_AbortReceive+0x5a>
 8003cbe:	6be0      	ldr	r0, [r4, #60]	@ 0x3c
 8003cc0:	b160      	cbz	r0, 8003cdc <HAL_UART_AbortReceive+0x90>
 8003cc2:	6501      	str	r1, [r0, #80]	@ 0x50
 8003cc4:	f7fe fc0e 	bl	80024e4 <HAL_DMA_Abort>
 8003cc8:	b140      	cbz	r0, 8003cdc <HAL_UART_AbortReceive+0x90>
 8003cca:	6be0      	ldr	r0, [r4, #60]	@ 0x3c
 8003ccc:	f7fe fc5a 	bl	8002584 <HAL_DMA_GetError>
 8003cd0:	2820      	cmp	r0, #32
 8003cd2:	d103      	bne.n	8003cdc <HAL_UART_AbortReceive+0x90>
 8003cd4:	2310      	movs	r3, #16
 8003cd6:	6463      	str	r3, [r4, #68]	@ 0x44
 8003cd8:	2003      	movs	r0, #3
 8003cda:	bd10      	pop	{r4, pc}
 8003cdc:	2000      	movs	r0, #0
 8003cde:	2320      	movs	r3, #32
 8003ce0:	85e0      	strh	r0, [r4, #46]	@ 0x2e
 8003ce2:	f884 3042 	strb.w	r3, [r4, #66]	@ 0x42
 8003ce6:	6320      	str	r0, [r4, #48]	@ 0x30
 8003ce8:	e7f7      	b.n	8003cda <HAL_UART_AbortReceive+0x8e>

08003cea <HAL_UART_TxCpltCallback>:
 8003cea:	4770      	bx	lr

08003cec <UART_DMAAbortOnError>:
 8003cec:	b508      	push	{r3, lr}
 8003cee:	6b80      	ldr	r0, [r0, #56]	@ 0x38
 8003cf0:	2300      	movs	r3, #0
 8003cf2:	85c3      	strh	r3, [r0, #46]	@ 0x2e
 8003cf4:	f7fe f89c 	bl	8001e30 <HAL_UART_ErrorCallback>
 8003cf8:	bd08      	pop	{r3, pc}

08003cfa <HAL_UARTEx_RxEventCallback>:
 8003cfa:	4770      	bx	lr

08003cfc <UART_Receive_IT.isra.0>:
 8003cfc:	f890 3042 	ldrb.w	r3, [r0, #66]	@ 0x42
 8003d00:	2b22      	cmp	r3, #34	@ 0x22
 8003d02:	b507      	push	{r0, r1, r2, lr}
 8003d04:	d142      	bne.n	8003d8c <UART_Receive_IT.isra.0+0x90>
 8003d06:	6881      	ldr	r1, [r0, #8]
 8003d08:	6802      	ldr	r2, [r0, #0]
 8003d0a:	6a83      	ldr	r3, [r0, #40]	@ 0x28
 8003d0c:	f5b1 5f80 	cmp.w	r1, #4096	@ 0x1000
 8003d10:	d13f      	bne.n	8003d92 <UART_Receive_IT.isra.0+0x96>
 8003d12:	6901      	ldr	r1, [r0, #16]
 8003d14:	2900      	cmp	r1, #0
 8003d16:	d13f      	bne.n	8003d98 <UART_Receive_IT.isra.0+0x9c>
 8003d18:	6852      	ldr	r2, [r2, #4]
 8003d1a:	f3c2 0208 	ubfx	r2, r2, #0, #9
 8003d1e:	f823 2b02 	strh.w	r2, [r3], #2
 8003d22:	6283      	str	r3, [r0, #40]	@ 0x28
 8003d24:	8dc3      	ldrh	r3, [r0, #46]	@ 0x2e
 8003d26:	3b01      	subs	r3, #1
 8003d28:	b29b      	uxth	r3, r3
 8003d2a:	85c3      	strh	r3, [r0, #46]	@ 0x2e
 8003d2c:	2b00      	cmp	r3, #0
 8003d2e:	d12d      	bne.n	8003d8c <UART_Receive_IT.isra.0+0x90>
 8003d30:	6802      	ldr	r2, [r0, #0]
 8003d32:	68d1      	ldr	r1, [r2, #12]
 8003d34:	f021 0120 	bic.w	r1, r1, #32
 8003d38:	60d1      	str	r1, [r2, #12]
 8003d3a:	68d1      	ldr	r1, [r2, #12]
 8003d3c:	f421 7180 	bic.w	r1, r1, #256	@ 0x100
 8003d40:	60d1      	str	r1, [r2, #12]
 8003d42:	6951      	ldr	r1, [r2, #20]
 8003d44:	f021 0101 	bic.w	r1, r1, #1
 8003d48:	6151      	str	r1, [r2, #20]
 8003d4a:	2220      	movs	r2, #32
 8003d4c:	f880 2042 	strb.w	r2, [r0, #66]	@ 0x42
 8003d50:	6343      	str	r3, [r0, #52]	@ 0x34
 8003d52:	6b02      	ldr	r2, [r0, #48]	@ 0x30
 8003d54:	2a01      	cmp	r2, #1
 8003d56:	6802      	ldr	r2, [r0, #0]
 8003d58:	d128      	bne.n	8003dac <UART_Receive_IT.isra.0+0xb0>
 8003d5a:	6303      	str	r3, [r0, #48]	@ 0x30
 8003d5c:	f102 030c 	add.w	r3, r2, #12
 8003d60:	e853 3f00 	ldrex	r3, [r3]
 8003d64:	f023 0310 	bic.w	r3, r3, #16
 8003d68:	f102 0c0c 	add.w	ip, r2, #12
 8003d6c:	e84c 3100 	strex	r1, r3, [ip]
 8003d70:	2900      	cmp	r1, #0
 8003d72:	d1f3      	bne.n	8003d5c <UART_Receive_IT.isra.0+0x60>
 8003d74:	6813      	ldr	r3, [r2, #0]
 8003d76:	06db      	lsls	r3, r3, #27
 8003d78:	d505      	bpl.n	8003d86 <UART_Receive_IT.isra.0+0x8a>
 8003d7a:	9101      	str	r1, [sp, #4]
 8003d7c:	6813      	ldr	r3, [r2, #0]
 8003d7e:	9301      	str	r3, [sp, #4]
 8003d80:	6853      	ldr	r3, [r2, #4]
 8003d82:	9301      	str	r3, [sp, #4]
 8003d84:	9b01      	ldr	r3, [sp, #4]
 8003d86:	8d81      	ldrh	r1, [r0, #44]	@ 0x2c
 8003d88:	f7ff ffb7 	bl	8003cfa <HAL_UARTEx_RxEventCallback>
 8003d8c:	b003      	add	sp, #12
 8003d8e:	f85d fb04 	ldr.w	pc, [sp], #4
 8003d92:	b939      	cbnz	r1, 8003da4 <UART_Receive_IT.isra.0+0xa8>
 8003d94:	6901      	ldr	r1, [r0, #16]
 8003d96:	b929      	cbnz	r1, 8003da4 <UART_Receive_IT.isra.0+0xa8>
 8003d98:	6852      	ldr	r2, [r2, #4]
 8003d9a:	b2d2      	uxtb	r2, r2
 8003d9c:	701a      	strb	r2, [r3, #0]
 8003d9e:	6a83      	ldr	r3, [r0, #40]	@ 0x28
 8003da0:	3301      	adds	r3, #1
 8003da2:	e7be      	b.n	8003d22 <UART_Receive_IT.isra.0+0x26>
 8003da4:	6852      	ldr	r2, [r2, #4]
 8003da6:	f002 027f 	and.w	r2, r2, #127	@ 0x7f
 8003daa:	e7f7      	b.n	8003d9c <UART_Receive_IT.isra.0+0xa0>
 8003dac:	f7fe f818 	bl	8001de0 <HAL_UART_RxCpltCallback>
 8003db0:	e7ec      	b.n	8003d8c <UART_Receive_IT.isra.0+0x90>
	...

08003db4 <HAL_UART_IRQHandler>:
 8003db4:	6803      	ldr	r3, [r0, #0]
 8003db6:	681a      	ldr	r2, [r3, #0]
 8003db8:	b573      	push	{r0, r1, r4, r5, r6, lr}
 8003dba:	0716      	lsls	r6, r2, #28
 8003dbc:	68d9      	ldr	r1, [r3, #12]
 8003dbe:	695d      	ldr	r5, [r3, #20]
 8003dc0:	4604      	mov	r4, r0
 8003dc2:	d108      	bne.n	8003dd6 <HAL_UART_IRQHandler+0x22>
 8003dc4:	0696      	lsls	r6, r2, #26
 8003dc6:	d568      	bpl.n	8003e9a <HAL_UART_IRQHandler+0xe6>
 8003dc8:	068d      	lsls	r5, r1, #26
 8003dca:	d566      	bpl.n	8003e9a <HAL_UART_IRQHandler+0xe6>
 8003dcc:	b002      	add	sp, #8
 8003dce:	e8bd 4070 	ldmia.w	sp!, {r4, r5, r6, lr}
 8003dd2:	f7ff bf93 	b.w	8003cfc <UART_Receive_IT.isra.0>
 8003dd6:	f005 0001 	and.w	r0, r5, #1
 8003dda:	f401 7590 	and.w	r5, r1, #288	@ 0x120
 8003dde:	4305      	orrs	r5, r0
 8003de0:	d05b      	beq.n	8003e9a <HAL_UART_IRQHandler+0xe6>
 8003de2:	07d6      	lsls	r6, r2, #31
 8003de4:	d505      	bpl.n	8003df2 <HAL_UART_IRQHandler+0x3e>
 8003de6:	05cd      	lsls	r5, r1, #23
 8003de8:	bf42      	ittt	mi
 8003dea:	6c63      	ldrmi	r3, [r4, #68]	@ 0x44
 8003dec:	f043 0301 	orrmi.w	r3, r3, #1
 8003df0:	6463      	strmi	r3, [r4, #68]	@ 0x44
 8003df2:	0753      	lsls	r3, r2, #29
 8003df4:	d504      	bpl.n	8003e00 <HAL_UART_IRQHandler+0x4c>
 8003df6:	b118      	cbz	r0, 8003e00 <HAL_UART_IRQHandler+0x4c>
 8003df8:	6c63      	ldr	r3, [r4, #68]	@ 0x44
 8003dfa:	f043 0302 	orr.w	r3, r3, #2
 8003dfe:	6463      	str	r3, [r4, #68]	@ 0x44
 8003e00:	0796      	lsls	r6, r2, #30
 8003e02:	d504      	bpl.n	8003e0e <HAL_UART_IRQHandler+0x5a>
 8003e04:	b118      	cbz	r0, 8003e0e <HAL_UART_IRQHandler+0x5a>
 8003e06:	6c63      	ldr	r3, [r4, #68]	@ 0x44
 8003e08:	f043 0304 	orr.w	r3, r3, #4
 8003e0c:	6463      	str	r3, [r4, #68]	@ 0x44
 8003e0e:	0715      	lsls	r5, r2, #28
 8003e10:	d507      	bpl.n	8003e22 <HAL_UART_IRQHandler+0x6e>
 8003e12:	f001 0320 	and.w	r3, r1, #32
 8003e16:	4303      	orrs	r3, r0
 8003e18:	bf1e      	ittt	ne
 8003e1a:	6c63      	ldrne	r3, [r4, #68]	@ 0x44
 8003e1c:	f043 0308 	orrne.w	r3, r3, #8
 8003e20:	6463      	strne	r3, [r4, #68]	@ 0x44
 8003e22:	6c63      	ldr	r3, [r4, #68]	@ 0x44
 8003e24:	2b00      	cmp	r3, #0
 8003e26:	d032      	beq.n	8003e8e <HAL_UART_IRQHandler+0xda>
 8003e28:	0692      	lsls	r2, r2, #26
 8003e2a:	d504      	bpl.n	8003e36 <HAL_UART_IRQHandler+0x82>
 8003e2c:	068b      	lsls	r3, r1, #26
 8003e2e:	d502      	bpl.n	8003e36 <HAL_UART_IRQHandler+0x82>
 8003e30:	4620      	mov	r0, r4
 8003e32:	f7ff ff63 	bl	8003cfc <UART_Receive_IT.isra.0>
 8003e36:	6826      	ldr	r6, [r4, #0]
 8003e38:	6973      	ldr	r3, [r6, #20]
 8003e3a:	6c62      	ldr	r2, [r4, #68]	@ 0x44
 8003e3c:	f003 0340 	and.w	r3, r3, #64	@ 0x40
 8003e40:	f002 0208 	and.w	r2, r2, #8
 8003e44:	ea53 0502 	orrs.w	r5, r3, r2
 8003e48:	4620      	mov	r0, r4
 8003e4a:	d022      	beq.n	8003e92 <HAL_UART_IRQHandler+0xde>
 8003e4c:	f7ff fd6c 	bl	8003928 <UART_EndRxTransfer>
 8003e50:	6973      	ldr	r3, [r6, #20]
 8003e52:	065e      	lsls	r6, r3, #25
 8003e54:	d518      	bpl.n	8003e88 <HAL_UART_IRQHandler+0xd4>
 8003e56:	6822      	ldr	r2, [r4, #0]
 8003e58:	f102 0314 	add.w	r3, r2, #20
 8003e5c:	e853 3f00 	ldrex	r3, [r3]
 8003e60:	f023 0340 	bic.w	r3, r3, #64	@ 0x40
 8003e64:	3214      	adds	r2, #20
 8003e66:	e842 3100 	strex	r1, r3, [r2]
 8003e6a:	2900      	cmp	r1, #0
 8003e6c:	d1f3      	bne.n	8003e56 <HAL_UART_IRQHandler+0xa2>
 8003e6e:	6be0      	ldr	r0, [r4, #60]	@ 0x3c
 8003e70:	b150      	cbz	r0, 8003e88 <HAL_UART_IRQHandler+0xd4>
 8003e72:	4b77      	ldr	r3, [pc, #476]	@ (8004050 <HAL_UART_IRQHandler+0x29c>)
 8003e74:	6503      	str	r3, [r0, #80]	@ 0x50
 8003e76:	f7fe fb73 	bl	8002560 <HAL_DMA_Abort_IT>
 8003e7a:	b140      	cbz	r0, 8003e8e <HAL_UART_IRQHandler+0xda>
 8003e7c:	6be0      	ldr	r0, [r4, #60]	@ 0x3c
 8003e7e:	6d03      	ldr	r3, [r0, #80]	@ 0x50
 8003e80:	b002      	add	sp, #8
 8003e82:	e8bd 4070 	ldmia.w	sp!, {r4, r5, r6, lr}
 8003e86:	4718      	bx	r3
 8003e88:	4620      	mov	r0, r4
 8003e8a:	f7fd ffd1 	bl	8001e30 <HAL_UART_ErrorCallback>
 8003e8e:	b002      	add	sp, #8
 8003e90:	bd70      	pop	{r4, r5, r6, pc}
 8003e92:	f7fd ffcd 	bl	8001e30 <HAL_UART_ErrorCallback>
 8003e96:	6465      	str	r5, [r4, #68]	@ 0x44
 8003e98:	e7f9      	b.n	8003e8e <HAL_UART_IRQHandler+0xda>
 8003e9a:	6b20      	ldr	r0, [r4, #48]	@ 0x30
 8003e9c:	2801      	cmp	r0, #1
 8003e9e:	f040 809b 	bne.w	8003fd8 <HAL_UART_IRQHandler+0x224>
 8003ea2:	06d5      	lsls	r5, r2, #27
 8003ea4:	f140 8098 	bpl.w	8003fd8 <HAL_UART_IRQHandler+0x224>
 8003ea8:	06c8      	lsls	r0, r1, #27
 8003eaa:	f140 8095 	bpl.w	8003fd8 <HAL_UART_IRQHandler+0x224>
 8003eae:	2200      	movs	r2, #0
 8003eb0:	9201      	str	r2, [sp, #4]
 8003eb2:	681a      	ldr	r2, [r3, #0]
 8003eb4:	9201      	str	r2, [sp, #4]
 8003eb6:	685a      	ldr	r2, [r3, #4]
 8003eb8:	9201      	str	r2, [sp, #4]
 8003eba:	9a01      	ldr	r2, [sp, #4]
 8003ebc:	6959      	ldr	r1, [r3, #20]
 8003ebe:	8da2      	ldrh	r2, [r4, #44]	@ 0x2c
 8003ec0:	0649      	lsls	r1, r1, #25
 8003ec2:	d556      	bpl.n	8003f72 <HAL_UART_IRQHandler+0x1be>
 8003ec4:	6be0      	ldr	r0, [r4, #60]	@ 0x3c
 8003ec6:	6801      	ldr	r1, [r0, #0]
 8003ec8:	6849      	ldr	r1, [r1, #4]
 8003eca:	b289      	uxth	r1, r1
 8003ecc:	2900      	cmp	r1, #0
 8003ece:	d047      	beq.n	8003f60 <HAL_UART_IRQHandler+0x1ac>
 8003ed0:	4291      	cmp	r1, r2
 8003ed2:	d245      	bcs.n	8003f60 <HAL_UART_IRQHandler+0x1ac>
 8003ed4:	69c2      	ldr	r2, [r0, #28]
 8003ed6:	85e1      	strh	r1, [r4, #46]	@ 0x2e
 8003ed8:	f5b2 7f80 	cmp.w	r2, #256	@ 0x100
 8003edc:	d036      	beq.n	8003f4c <HAL_UART_IRQHandler+0x198>
 8003ede:	f103 020c 	add.w	r2, r3, #12
 8003ee2:	e852 2f00 	ldrex	r2, [r2]
 8003ee6:	f422 7280 	bic.w	r2, r2, #256	@ 0x100
 8003eea:	f103 000c 	add.w	r0, r3, #12
 8003eee:	e840 2100 	strex	r1, r2, [r0]
 8003ef2:	2900      	cmp	r1, #0
 8003ef4:	d1f3      	bne.n	8003ede <HAL_UART_IRQHandler+0x12a>
 8003ef6:	f103 0214 	add.w	r2, r3, #20
 8003efa:	e852 2f00 	ldrex	r2, [r2]
 8003efe:	f022 0201 	bic.w	r2, r2, #1
 8003f02:	f103 0014 	add.w	r0, r3, #20
 8003f06:	e840 2100 	strex	r1, r2, [r0]
 8003f0a:	2900      	cmp	r1, #0
 8003f0c:	d1f3      	bne.n	8003ef6 <HAL_UART_IRQHandler+0x142>
 8003f0e:	f103 0214 	add.w	r2, r3, #20
 8003f12:	e852 2f00 	ldrex	r2, [r2]
 8003f16:	f022 0240 	bic.w	r2, r2, #64	@ 0x40
 8003f1a:	f103 0014 	add.w	r0, r3, #20
 8003f1e:	e840 2100 	strex	r1, r2, [r0]
 8003f22:	2900      	cmp	r1, #0
 8003f24:	d1f3      	bne.n	8003f0e <HAL_UART_IRQHandler+0x15a>
 8003f26:	2220      	movs	r2, #32
 8003f28:	f884 2042 	strb.w	r2, [r4, #66]	@ 0x42
 8003f2c:	6321      	str	r1, [r4, #48]	@ 0x30
 8003f2e:	f103 020c 	add.w	r2, r3, #12
 8003f32:	e852 2f00 	ldrex	r2, [r2]
 8003f36:	f022 0210 	bic.w	r2, r2, #16
 8003f3a:	f103 000c 	add.w	r0, r3, #12
 8003f3e:	e840 2100 	strex	r1, r2, [r0]
 8003f42:	2900      	cmp	r1, #0
 8003f44:	d1f3      	bne.n	8003f2e <HAL_UART_IRQHandler+0x17a>
 8003f46:	6be0      	ldr	r0, [r4, #60]	@ 0x3c
 8003f48:	f7fe facc 	bl	80024e4 <HAL_DMA_Abort>
 8003f4c:	2302      	movs	r3, #2
 8003f4e:	6363      	str	r3, [r4, #52]	@ 0x34
 8003f50:	8de3      	ldrh	r3, [r4, #46]	@ 0x2e
 8003f52:	8da1      	ldrh	r1, [r4, #44]	@ 0x2c
 8003f54:	1ac9      	subs	r1, r1, r3
 8003f56:	b289      	uxth	r1, r1
 8003f58:	4620      	mov	r0, r4
 8003f5a:	f7ff fece 	bl	8003cfa <HAL_UARTEx_RxEventCallback>
 8003f5e:	e796      	b.n	8003e8e <HAL_UART_IRQHandler+0xda>
 8003f60:	4291      	cmp	r1, r2
 8003f62:	d194      	bne.n	8003e8e <HAL_UART_IRQHandler+0xda>
 8003f64:	69c3      	ldr	r3, [r0, #28]
 8003f66:	f5b3 7f80 	cmp.w	r3, #256	@ 0x100
 8003f6a:	d190      	bne.n	8003e8e <HAL_UART_IRQHandler+0xda>
 8003f6c:	2302      	movs	r3, #2
 8003f6e:	6363      	str	r3, [r4, #52]	@ 0x34
 8003f70:	e7f2      	b.n	8003f58 <HAL_UART_IRQHandler+0x1a4>
 8003f72:	8de1      	ldrh	r1, [r4, #46]	@ 0x2e
 8003f74:	8de0      	ldrh	r0, [r4, #46]	@ 0x2e
 8003f76:	b280      	uxth	r0, r0
 8003f78:	b289      	uxth	r1, r1
 8003f7a:	2800      	cmp	r0, #0
 8003f7c:	d087      	beq.n	8003e8e <HAL_UART_IRQHandler+0xda>
 8003f7e:	1a51      	subs	r1, r2, r1
 8003f80:	b289      	uxth	r1, r1
 8003f82:	2900      	cmp	r1, #0
 8003f84:	d083      	beq.n	8003e8e <HAL_UART_IRQHandler+0xda>
 8003f86:	f103 020c 	add.w	r2, r3, #12
 8003f8a:	e852 2f00 	ldrex	r2, [r2]
 8003f8e:	f422 7290 	bic.w	r2, r2, #288	@ 0x120
 8003f92:	f103 050c 	add.w	r5, r3, #12
 8003f96:	e845 2000 	strex	r0, r2, [r5]
 8003f9a:	2800      	cmp	r0, #0
 8003f9c:	d1f3      	bne.n	8003f86 <HAL_UART_IRQHandler+0x1d2>
 8003f9e:	f103 0214 	add.w	r2, r3, #20
 8003fa2:	e852 2f00 	ldrex	r2, [r2]
 8003fa6:	f022 0201 	bic.w	r2, r2, #1
 8003faa:	f103 0514 	add.w	r5, r3, #20
 8003fae:	e845 2000 	strex	r0, r2, [r5]
 8003fb2:	2800      	cmp	r0, #0
 8003fb4:	d1f3      	bne.n	8003f9e <HAL_UART_IRQHandler+0x1ea>
 8003fb6:	2220      	movs	r2, #32
 8003fb8:	f884 2042 	strb.w	r2, [r4, #66]	@ 0x42
 8003fbc:	6320      	str	r0, [r4, #48]	@ 0x30
 8003fbe:	f103 020c 	add.w	r2, r3, #12
 8003fc2:	e852 2f00 	ldrex	r2, [r2]
 8003fc6:	f022 0210 	bic.w	r2, r2, #16
 8003fca:	f103 050c 	add.w	r5, r3, #12
 8003fce:	e845 2000 	strex	r0, r2, [r5]
 8003fd2:	2800      	cmp	r0, #0
 8003fd4:	d1f3      	bne.n	8003fbe <HAL_UART_IRQHandler+0x20a>
 8003fd6:	e7c9      	b.n	8003f6c <HAL_UART_IRQHandler+0x1b8>
 8003fd8:	0616      	lsls	r6, r2, #24
 8003fda:	d528      	bpl.n	800402e <HAL_UART_IRQHandler+0x27a>
 8003fdc:	060d      	lsls	r5, r1, #24
 8003fde:	d526      	bpl.n	800402e <HAL_UART_IRQHandler+0x27a>
 8003fe0:	f894 2041 	ldrb.w	r2, [r4, #65]	@ 0x41
 8003fe4:	2a21      	cmp	r2, #33	@ 0x21
 8003fe6:	f47f af52 	bne.w	8003e8e <HAL_UART_IRQHandler+0xda>
 8003fea:	68a1      	ldr	r1, [r4, #8]
 8003fec:	6a22      	ldr	r2, [r4, #32]
 8003fee:	f5b1 5f80 	cmp.w	r1, #4096	@ 0x1000
 8003ff2:	d117      	bne.n	8004024 <HAL_UART_IRQHandler+0x270>
 8003ff4:	6921      	ldr	r1, [r4, #16]
 8003ff6:	b9a9      	cbnz	r1, 8004024 <HAL_UART_IRQHandler+0x270>
 8003ff8:	f832 1b02 	ldrh.w	r1, [r2], #2
 8003ffc:	f3c1 0108 	ubfx	r1, r1, #0, #9
 8004000:	6059      	str	r1, [r3, #4]
 8004002:	6222      	str	r2, [r4, #32]
 8004004:	8ce2      	ldrh	r2, [r4, #38]	@ 0x26
 8004006:	3a01      	subs	r2, #1
 8004008:	b292      	uxth	r2, r2
 800400a:	84e2      	strh	r2, [r4, #38]	@ 0x26
 800400c:	2a00      	cmp	r2, #0
 800400e:	f47f af3e 	bne.w	8003e8e <HAL_UART_IRQHandler+0xda>
 8004012:	68da      	ldr	r2, [r3, #12]
 8004014:	f022 0280 	bic.w	r2, r2, #128	@ 0x80
 8004018:	60da      	str	r2, [r3, #12]
 800401a:	68da      	ldr	r2, [r3, #12]
 800401c:	f042 0240 	orr.w	r2, r2, #64	@ 0x40
 8004020:	60da      	str	r2, [r3, #12]
 8004022:	e734      	b.n	8003e8e <HAL_UART_IRQHandler+0xda>
 8004024:	1c51      	adds	r1, r2, #1
 8004026:	6221      	str	r1, [r4, #32]
 8004028:	7812      	ldrb	r2, [r2, #0]
 800402a:	605a      	str	r2, [r3, #4]
 800402c:	e7ea      	b.n	8004004 <HAL_UART_IRQHandler+0x250>
 800402e:	0650      	lsls	r0, r2, #25
 8004030:	f57f af2d 	bpl.w	8003e8e <HAL_UART_IRQHandler+0xda>
 8004034:	064a      	lsls	r2, r1, #25
 8004036:	f57f af2a 	bpl.w	8003e8e <HAL_UART_IRQHandler+0xda>
 800403a:	68da      	ldr	r2, [r3, #12]
 800403c:	f022 0240 	bic.w	r2, r2, #64	@ 0x40
 8004040:	60da      	str	r2, [r3, #12]
 8004042:	2320      	movs	r3, #32
 8004044:	f884 3041 	strb.w	r3, [r4, #65]	@ 0x41
 8004048:	4620      	mov	r0, r4
 800404a:	f7ff fe4e 	bl	8003cea <HAL_UART_TxCpltCallback>
 800404e:	e71e      	b.n	8003e8e <HAL_UART_IRQHandler+0xda>
 8004050:	08003ced 	.word	0x08003ced

08004054 <UART_Start_Receive_IT>:
 8004054:	85c2      	strh	r2, [r0, #46]	@ 0x2e
 8004056:	2300      	movs	r3, #0
 8004058:	8582      	strh	r2, [r0, #44]	@ 0x2c
 800405a:	6902      	ldr	r2, [r0, #16]
 800405c:	6443      	str	r3, [r0, #68]	@ 0x44
 800405e:	2322      	movs	r3, #34	@ 0x22
 8004060:	f880 3042 	strb.w	r3, [r0, #66]	@ 0x42
 8004064:	6281      	str	r1, [r0, #40]	@ 0x28
 8004066:	6803      	ldr	r3, [r0, #0]
 8004068:	b11a      	cbz	r2, 8004072 <UART_Start_Receive_IT+0x1e>
 800406a:	68da      	ldr	r2, [r3, #12]
 800406c:	f442 7280 	orr.w	r2, r2, #256	@ 0x100
 8004070:	60da      	str	r2, [r3, #12]
 8004072:	695a      	ldr	r2, [r3, #20]
 8004074:	f042 0201 	orr.w	r2, r2, #1
 8004078:	615a      	str	r2, [r3, #20]
 800407a:	68da      	ldr	r2, [r3, #12]
 800407c:	f042 0220 	orr.w	r2, r2, #32
 8004080:	60da      	str	r2, [r3, #12]
 8004082:	2000      	movs	r0, #0
 8004084:	4770      	bx	lr

08004086 <HAL_UART_Receive_IT>:
 8004086:	b470      	push	{r4, r5, r6}
 8004088:	f890 6042 	ldrb.w	r6, [r0, #66]	@ 0x42
 800408c:	2e20      	cmp	r6, #32
 800408e:	d106      	bne.n	800409e <HAL_UART_Receive_IT+0x18>
 8004090:	b141      	cbz	r1, 80040a4 <HAL_UART_Receive_IT+0x1e>
 8004092:	b13a      	cbz	r2, 80040a4 <HAL_UART_Receive_IT+0x1e>
 8004094:	2400      	movs	r4, #0
 8004096:	6304      	str	r4, [r0, #48]	@ 0x30
 8004098:	bc70      	pop	{r4, r5, r6}
 800409a:	f7ff bfdb 	b.w	8004054 <UART_Start_Receive_IT>
 800409e:	2002      	movs	r0, #2
 80040a0:	bc70      	pop	{r4, r5, r6}
 80040a2:	4770      	bx	lr
 80040a4:	2001      	movs	r0, #1
 80040a6:	e7fb      	b.n	80040a0 <HAL_UART_Receive_IT+0x1a>

080040a8 <memset>:
 80040a8:	4402      	add	r2, r0
 80040aa:	4603      	mov	r3, r0
 80040ac:	4293      	cmp	r3, r2
 80040ae:	d100      	bne.n	80040b2 <memset+0xa>
 80040b0:	4770      	bx	lr
 80040b2:	f803 1b01 	strb.w	r1, [r3], #1
 80040b6:	e7f9      	b.n	80040ac <memset+0x4>

080040b8 <strstr>:
 80040b8:	780a      	ldrb	r2, [r1, #0]
 80040ba:	b570      	push	{r4, r5, r6, lr}
 80040bc:	b96a      	cbnz	r2, 80040da <strstr+0x22>
 80040be:	bd70      	pop	{r4, r5, r6, pc}
 80040c0:	429a      	cmp	r2, r3
 80040c2:	d109      	bne.n	80040d8 <strstr+0x20>
 80040c4:	460c      	mov	r4, r1
 80040c6:	4605      	mov	r5, r0
 80040c8:	f814 3f01 	ldrb.w	r3, [r4, #1]!
 80040cc:	2b00      	cmp	r3, #0
 80040ce:	d0f6      	beq.n	80040be <strstr+0x6>
 80040d0:	f815 6f01 	ldrb.w	r6, [r5, #1]!
 80040d4:	429e      	cmp	r6, r3
 80040d6:	d0f7      	beq.n	80040c8 <strstr+0x10>
 80040d8:	3001      	adds	r0, #1
 80040da:	7803      	ldrb	r3, [r0, #0]
 80040dc:	2b00      	cmp	r3, #0
 80040de:	d1ef      	bne.n	80040c0 <strstr+0x8>
 80040e0:	4618      	mov	r0, r3
 80040e2:	e7ec      	b.n	80040be <strstr+0x6>

080040e4 <__errno>:
 80040e4:	4b01      	ldr	r3, [pc, #4]	@ (80040ec <__errno+0x8>)
 80040e6:	6818      	ldr	r0, [r3, #0]
 80040e8:	4770      	bx	lr
 80040ea:	bf00      	nop
 80040ec:	20000010 	.word	0x20000010

080040f0 <__libc_init_array>:
 80040f0:	b570      	push	{r4, r5, r6, lr}
 80040f2:	4d0d      	ldr	r5, [pc, #52]	@ (8004128 <__libc_init_array+0x38>)
 80040f4:	4c0d      	ldr	r4, [pc, #52]	@ (800412c <__libc_init_array+0x3c>)
 80040f6:	1b64      	subs	r4, r4, r5
 80040f8:	10a4      	asrs	r4, r4, #2
 80040fa:	2600      	movs	r6, #0
 80040fc:	42a6      	cmp	r6, r4
 80040fe:	d109      	bne.n	8004114 <__libc_init_array+0x24>
 8004100:	4d0b      	ldr	r5, [pc, #44]	@ (8004130 <__libc_init_array+0x40>)
 8004102:	4c0c      	ldr	r4, [pc, #48]	@ (8004134 <__libc_init_array+0x44>)
 8004104:	f000 fb08 	bl	8004718 <_init>
 8004108:	1b64      	subs	r4, r4, r5
 800410a:	10a4      	asrs	r4, r4, #2
 800410c:	2600      	movs	r6, #0
 800410e:	42a6      	cmp	r6, r4
 8004110:	d105      	bne.n	800411e <__libc_init_array+0x2e>
 8004112:	bd70      	pop	{r4, r5, r6, pc}
 8004114:	f855 3b04 	ldr.w	r3, [r5], #4
 8004118:	4798      	blx	r3
 800411a:	3601      	adds	r6, #1
 800411c:	e7ee      	b.n	80040fc <__libc_init_array+0xc>
 800411e:	f855 3b04 	ldr.w	r3, [r5], #4
 8004122:	4798      	blx	r3
 8004124:	3601      	adds	r6, #1
 8004126:	e7f2      	b.n	800410e <__libc_init_array+0x1e>
 8004128:	08004864 	.word	0x08004864
 800412c:	08004864 	.word	0x08004864
 8004130:	08004864 	.word	0x08004864
 8004134:	08004868 	.word	0x08004868

08004138 <memcpy>:
 8004138:	440a      	add	r2, r1
 800413a:	4291      	cmp	r1, r2
 800413c:	f100 33ff 	add.w	r3, r0, #4294967295
 8004140:	d100      	bne.n	8004144 <memcpy+0xc>
 8004142:	4770      	bx	lr
 8004144:	b510      	push	{r4, lr}
 8004146:	f811 4b01 	ldrb.w	r4, [r1], #1
 800414a:	f803 4f01 	strb.w	r4, [r3, #1]!
 800414e:	4291      	cmp	r1, r2
 8004150:	d1f9      	bne.n	8004146 <memcpy+0xe>
 8004152:	bd10      	pop	{r4, pc}

08004154 <asinf>:
 8004154:	b508      	push	{r3, lr}
 8004156:	ed2d 8b02 	vpush	{d8}
 800415a:	eeb0 8a40 	vmov.f32	s16, s0
 800415e:	f000 f883 	bl	8004268 <__ieee754_asinf>
 8004162:	eeb4 8a48 	vcmp.f32	s16, s16
 8004166:	eef1 fa10 	vmrs	APSR_nzcv, fpscr
 800416a:	eef0 8a40 	vmov.f32	s17, s0
 800416e:	d615      	bvs.n	800419c <asinf+0x48>
 8004170:	eeb0 0a48 	vmov.f32	s0, s16
 8004174:	f000 f83a 	bl	80041ec <fabsf>
 8004178:	eef7 7a00 	vmov.f32	s15, #112	@ 0x3f800000  1.0
 800417c:	eeb4 0ae7 	vcmpe.f32	s0, s15
 8004180:	eef1 fa10 	vmrs	APSR_nzcv, fpscr
 8004184:	dd0a      	ble.n	800419c <asinf+0x48>
 8004186:	f7ff ffad 	bl	80040e4 <__errno>
 800418a:	ecbd 8b02 	vpop	{d8}
 800418e:	2321      	movs	r3, #33	@ 0x21
 8004190:	6003      	str	r3, [r0, #0]
 8004192:	e8bd 4008 	ldmia.w	sp!, {r3, lr}
 8004196:	4804      	ldr	r0, [pc, #16]	@ (80041a8 <asinf+0x54>)
 8004198:	f000 b830 	b.w	80041fc <nanf>
 800419c:	eeb0 0a68 	vmov.f32	s0, s17
 80041a0:	ecbd 8b02 	vpop	{d8}
 80041a4:	bd08      	pop	{r3, pc}
 80041a6:	bf00      	nop
 80041a8:	08004732 	.word	0x08004732

080041ac <atan2f>:
 80041ac:	f000 b940 	b.w	8004430 <__ieee754_atan2f>

080041b0 <sqrtf>:
 80041b0:	b508      	push	{r3, lr}
 80041b2:	ed2d 8b02 	vpush	{d8}
 80041b6:	eeb0 8a40 	vmov.f32	s16, s0
 80041ba:	f000 f852 	bl	8004262 <__ieee754_sqrtf>
 80041be:	eeb4 8a48 	vcmp.f32	s16, s16
 80041c2:	eef1 fa10 	vmrs	APSR_nzcv, fpscr
 80041c6:	d60c      	bvs.n	80041e2 <sqrtf+0x32>
 80041c8:	eddf 8a07 	vldr	s17, [pc, #28]	@ 80041e8 <sqrtf+0x38>
 80041cc:	eeb4 8ae8 	vcmpe.f32	s16, s17
 80041d0:	eef1 fa10 	vmrs	APSR_nzcv, fpscr
 80041d4:	d505      	bpl.n	80041e2 <sqrtf+0x32>
 80041d6:	f7ff ff85 	bl	80040e4 <__errno>
 80041da:	ee88 0aa8 	vdiv.f32	s0, s17, s17
 80041de:	2321      	movs	r3, #33	@ 0x21
 80041e0:	6003      	str	r3, [r0, #0]
 80041e2:	ecbd 8b02 	vpop	{d8}
 80041e6:	bd08      	pop	{r3, pc}
 80041e8:	00000000 	.word	0x00000000

080041ec <fabsf>:
 80041ec:	ee10 3a10 	vmov	r3, s0
 80041f0:	f023 4300 	bic.w	r3, r3, #2147483648	@ 0x80000000
 80041f4:	ee00 3a10 	vmov	s0, r3
 80041f8:	4770      	bx	lr
	...

080041fc <nanf>:
 80041fc:	ed9f 0a01 	vldr	s0, [pc, #4]	@ 8004204 <nanf+0x8>
 8004200:	4770      	bx	lr
 8004202:	bf00      	nop
 8004204:	7fc00000 	.word	0x7fc00000

08004208 <lroundf>:
 8004208:	ee10 1a10 	vmov	r1, s0
 800420c:	f3c1 53c7 	ubfx	r3, r1, #23, #8
 8004210:	2900      	cmp	r1, #0
 8004212:	f1a3 027f 	sub.w	r2, r3, #127	@ 0x7f
 8004216:	bfac      	ite	ge
 8004218:	2001      	movge	r0, #1
 800421a:	f04f 30ff 	movlt.w	r0, #4294967295
 800421e:	2a1e      	cmp	r2, #30
 8004220:	dc1a      	bgt.n	8004258 <lroundf+0x50>
 8004222:	2a00      	cmp	r2, #0
 8004224:	da03      	bge.n	800422e <lroundf+0x26>
 8004226:	3201      	adds	r2, #1
 8004228:	bf18      	it	ne
 800422a:	2000      	movne	r0, #0
 800422c:	4770      	bx	lr
 800422e:	2a16      	cmp	r2, #22
 8004230:	bfd8      	it	le
 8004232:	f44f 0380 	movle.w	r3, #4194304	@ 0x400000
 8004236:	f3c1 0116 	ubfx	r1, r1, #0, #23
 800423a:	bfd8      	it	le
 800423c:	4113      	asrle	r3, r2
 800423e:	f441 0100 	orr.w	r1, r1, #8388608	@ 0x800000
 8004242:	bfcd      	iteet	gt
 8004244:	3b96      	subgt	r3, #150	@ 0x96
 8004246:	185b      	addle	r3, r3, r1
 8004248:	f1c2 0217 	rsble	r2, r2, #23
 800424c:	fa01 f303 	lslgt.w	r3, r1, r3
 8004250:	bfd8      	it	le
 8004252:	40d3      	lsrle	r3, r2
 8004254:	4358      	muls	r0, r3
 8004256:	4770      	bx	lr
 8004258:	eefd 7ac0 	vcvt.s32.f32	s15, s0
 800425c:	ee17 0a90 	vmov	r0, s15
 8004260:	4770      	bx	lr

08004262 <__ieee754_sqrtf>:
 8004262:	eeb1 0ac0 	vsqrt.f32	s0, s0
 8004266:	4770      	bx	lr

08004268 <__ieee754_asinf>:
 8004268:	b538      	push	{r3, r4, r5, lr}
 800426a:	ee10 5a10 	vmov	r5, s0
 800426e:	f025 4400 	bic.w	r4, r5, #2147483648	@ 0x80000000
 8004272:	f1b4 5f7e 	cmp.w	r4, #1065353216	@ 0x3f800000
 8004276:	ed2d 8b04 	vpush	{d8-d9}
 800427a:	d10c      	bne.n	8004296 <__ieee754_asinf+0x2e>
 800427c:	eddf 7a5c 	vldr	s15, [pc, #368]	@ 80043f0 <__ieee754_asinf+0x188>
 8004280:	ed9f 7a5c 	vldr	s14, [pc, #368]	@ 80043f4 <__ieee754_asinf+0x18c>
 8004284:	ee60 7a27 	vmul.f32	s15, s0, s15
 8004288:	eee0 7a07 	vfma.f32	s15, s0, s14
 800428c:	eeb0 0a67 	vmov.f32	s0, s15
 8004290:	ecbd 8b04 	vpop	{d8-d9}
 8004294:	bd38      	pop	{r3, r4, r5, pc}
 8004296:	d904      	bls.n	80042a2 <__ieee754_asinf+0x3a>
 8004298:	ee70 7a40 	vsub.f32	s15, s0, s0
 800429c:	ee87 0aa7 	vdiv.f32	s0, s15, s15
 80042a0:	e7f6      	b.n	8004290 <__ieee754_asinf+0x28>
 80042a2:	f1b4 5f7c 	cmp.w	r4, #1056964608	@ 0x3f000000
 80042a6:	eef7 8a00 	vmov.f32	s17, #112	@ 0x3f800000  1.0
 80042aa:	d20b      	bcs.n	80042c4 <__ieee754_asinf+0x5c>
 80042ac:	f1b4 5f48 	cmp.w	r4, #838860800	@ 0x32000000
 80042b0:	d252      	bcs.n	8004358 <__ieee754_asinf+0xf0>
 80042b2:	eddf 7a51 	vldr	s15, [pc, #324]	@ 80043f8 <__ieee754_asinf+0x190>
 80042b6:	ee70 7a27 	vadd.f32	s15, s0, s15
 80042ba:	eef4 7ae8 	vcmpe.f32	s15, s17
 80042be:	eef1 fa10 	vmrs	APSR_nzcv, fpscr
 80042c2:	dce5      	bgt.n	8004290 <__ieee754_asinf+0x28>
 80042c4:	f7ff ff92 	bl	80041ec <fabsf>
 80042c8:	ee38 8ac0 	vsub.f32	s16, s17, s0
 80042cc:	eef6 7a00 	vmov.f32	s15, #96	@ 0x3f000000  0.5
 80042d0:	ee28 8a27 	vmul.f32	s16, s16, s15
 80042d4:	ed9f 7a49 	vldr	s14, [pc, #292]	@ 80043fc <__ieee754_asinf+0x194>
 80042d8:	eddf 7a49 	vldr	s15, [pc, #292]	@ 8004400 <__ieee754_asinf+0x198>
 80042dc:	ed9f 9a49 	vldr	s18, [pc, #292]	@ 8004404 <__ieee754_asinf+0x19c>
 80042e0:	eea8 7a27 	vfma.f32	s14, s16, s15
 80042e4:	eddf 7a48 	vldr	s15, [pc, #288]	@ 8004408 <__ieee754_asinf+0x1a0>
 80042e8:	eee7 7a08 	vfma.f32	s15, s14, s16
 80042ec:	ed9f 7a47 	vldr	s14, [pc, #284]	@ 800440c <__ieee754_asinf+0x1a4>
 80042f0:	eea7 7a88 	vfma.f32	s14, s15, s16
 80042f4:	eddf 7a46 	vldr	s15, [pc, #280]	@ 8004410 <__ieee754_asinf+0x1a8>
 80042f8:	eee7 7a08 	vfma.f32	s15, s14, s16
 80042fc:	ed9f 7a45 	vldr	s14, [pc, #276]	@ 8004414 <__ieee754_asinf+0x1ac>
 8004300:	eea7 9a88 	vfma.f32	s18, s15, s16
 8004304:	eddf 7a44 	vldr	s15, [pc, #272]	@ 8004418 <__ieee754_asinf+0x1b0>
 8004308:	eee8 7a07 	vfma.f32	s15, s16, s14
 800430c:	ed9f 7a43 	vldr	s14, [pc, #268]	@ 800441c <__ieee754_asinf+0x1b4>
 8004310:	eea7 7a88 	vfma.f32	s14, s15, s16
 8004314:	eddf 7a42 	vldr	s15, [pc, #264]	@ 8004420 <__ieee754_asinf+0x1b8>
 8004318:	eee7 7a08 	vfma.f32	s15, s14, s16
 800431c:	eeb0 0a48 	vmov.f32	s0, s16
 8004320:	eee7 8a88 	vfma.f32	s17, s15, s16
 8004324:	f7ff ff9d 	bl	8004262 <__ieee754_sqrtf>
 8004328:	4b3e      	ldr	r3, [pc, #248]	@ (8004424 <__ieee754_asinf+0x1bc>)
 800432a:	ee29 9a08 	vmul.f32	s18, s18, s16
 800432e:	429c      	cmp	r4, r3
 8004330:	ee89 6a28 	vdiv.f32	s12, s18, s17
 8004334:	eef0 6a00 	vmov.f32	s13, #0	@ 0x40000000  2.0
 8004338:	d93d      	bls.n	80043b6 <__ieee754_asinf+0x14e>
 800433a:	eea0 0a06 	vfma.f32	s0, s0, s12
 800433e:	eddf 7a3a 	vldr	s15, [pc, #232]	@ 8004428 <__ieee754_asinf+0x1c0>
 8004342:	eee0 7a26 	vfma.f32	s15, s0, s13
 8004346:	ed9f 0a2b 	vldr	s0, [pc, #172]	@ 80043f4 <__ieee754_asinf+0x18c>
 800434a:	ee30 0a67 	vsub.f32	s0, s0, s15
 800434e:	2d00      	cmp	r5, #0
 8004350:	bfd8      	it	le
 8004352:	eeb1 0a40 	vnegle.f32	s0, s0
 8004356:	e79b      	b.n	8004290 <__ieee754_asinf+0x28>
 8004358:	ee60 7a00 	vmul.f32	s15, s0, s0
 800435c:	eddf 6a28 	vldr	s13, [pc, #160]	@ 8004400 <__ieee754_asinf+0x198>
 8004360:	ed9f 7a26 	vldr	s14, [pc, #152]	@ 80043fc <__ieee754_asinf+0x194>
 8004364:	ed9f 6a2b 	vldr	s12, [pc, #172]	@ 8004414 <__ieee754_asinf+0x1ac>
 8004368:	eea7 7aa6 	vfma.f32	s14, s15, s13
 800436c:	eddf 6a26 	vldr	s13, [pc, #152]	@ 8004408 <__ieee754_asinf+0x1a0>
 8004370:	eee7 6a27 	vfma.f32	s13, s14, s15
 8004374:	ed9f 7a25 	vldr	s14, [pc, #148]	@ 800440c <__ieee754_asinf+0x1a4>
 8004378:	eea6 7aa7 	vfma.f32	s14, s13, s15
 800437c:	eddf 6a24 	vldr	s13, [pc, #144]	@ 8004410 <__ieee754_asinf+0x1a8>
 8004380:	eee7 6a27 	vfma.f32	s13, s14, s15
 8004384:	ed9f 7a1f 	vldr	s14, [pc, #124]	@ 8004404 <__ieee754_asinf+0x19c>
 8004388:	eea6 7aa7 	vfma.f32	s14, s13, s15
 800438c:	eddf 6a22 	vldr	s13, [pc, #136]	@ 8004418 <__ieee754_asinf+0x1b0>
 8004390:	eee7 6a86 	vfma.f32	s13, s15, s12
 8004394:	ed9f 6a21 	vldr	s12, [pc, #132]	@ 800441c <__ieee754_asinf+0x1b4>
 8004398:	eea6 6aa7 	vfma.f32	s12, s13, s15
 800439c:	eddf 6a20 	vldr	s13, [pc, #128]	@ 8004420 <__ieee754_asinf+0x1b8>
 80043a0:	eee6 6a27 	vfma.f32	s13, s12, s15
 80043a4:	ee27 7a27 	vmul.f32	s14, s14, s15
 80043a8:	eee6 8aa7 	vfma.f32	s17, s13, s15
 80043ac:	eec7 7a28 	vdiv.f32	s15, s14, s17
 80043b0:	eea0 0a27 	vfma.f32	s0, s0, s15
 80043b4:	e76c      	b.n	8004290 <__ieee754_asinf+0x28>
 80043b6:	ee10 3a10 	vmov	r3, s0
 80043ba:	f36f 030b 	bfc	r3, #0, #12
 80043be:	ee07 3a10 	vmov	s14, r3
 80043c2:	eea7 8a47 	vfms.f32	s16, s14, s14
 80043c6:	ee70 5a00 	vadd.f32	s11, s0, s0
 80043ca:	ee30 0a07 	vadd.f32	s0, s0, s14
 80043ce:	eddf 7a08 	vldr	s15, [pc, #32]	@ 80043f0 <__ieee754_asinf+0x188>
 80043d2:	ee88 5a00 	vdiv.f32	s10, s16, s0
 80043d6:	ed9f 0a15 	vldr	s0, [pc, #84]	@ 800442c <__ieee754_asinf+0x1c4>
 80043da:	eee5 7a66 	vfms.f32	s15, s10, s13
 80043de:	eed5 7a86 	vfnms.f32	s15, s11, s12
 80043e2:	eeb0 6a40 	vmov.f32	s12, s0
 80043e6:	eea7 6a66 	vfms.f32	s12, s14, s13
 80043ea:	ee77 7ac6 	vsub.f32	s15, s15, s12
 80043ee:	e7ac      	b.n	800434a <__ieee754_asinf+0xe2>
 80043f0:	b33bbd2e 	.word	0xb33bbd2e
 80043f4:	3fc90fdb 	.word	0x3fc90fdb
 80043f8:	7149f2ca 	.word	0x7149f2ca
 80043fc:	3a4f7f04 	.word	0x3a4f7f04
 8004400:	3811ef08 	.word	0x3811ef08
 8004404:	3e2aaaab 	.word	0x3e2aaaab
 8004408:	bd241146 	.word	0xbd241146
 800440c:	3e4e0aa8 	.word	0x3e4e0aa8
 8004410:	bea6b090 	.word	0xbea6b090
 8004414:	3d9dc62e 	.word	0x3d9dc62e
 8004418:	bf303361 	.word	0xbf303361
 800441c:	4001572d 	.word	0x4001572d
 8004420:	c019d139 	.word	0xc019d139
 8004424:	3f799999 	.word	0x3f799999
 8004428:	333bbd2e 	.word	0x333bbd2e
 800442c:	3f490fdb 	.word	0x3f490fdb

08004430 <__ieee754_atan2f>:
 8004430:	ee10 2a90 	vmov	r2, s1
 8004434:	f022 4100 	bic.w	r1, r2, #2147483648	@ 0x80000000
 8004438:	f1b1 4fff 	cmp.w	r1, #2139095040	@ 0x7f800000
 800443c:	b510      	push	{r4, lr}
 800443e:	eef0 7a40 	vmov.f32	s15, s0
 8004442:	d806      	bhi.n	8004452 <__ieee754_atan2f+0x22>
 8004444:	ee10 0a10 	vmov	r0, s0
 8004448:	f020 4300 	bic.w	r3, r0, #2147483648	@ 0x80000000
 800444c:	f1b3 4fff 	cmp.w	r3, #2139095040	@ 0x7f800000
 8004450:	d904      	bls.n	800445c <__ieee754_atan2f+0x2c>
 8004452:	ee77 7aa0 	vadd.f32	s15, s15, s1
 8004456:	eeb0 0a67 	vmov.f32	s0, s15
 800445a:	bd10      	pop	{r4, pc}
 800445c:	f1b2 5f7e 	cmp.w	r2, #1065353216	@ 0x3f800000
 8004460:	d103      	bne.n	800446a <__ieee754_atan2f+0x3a>
 8004462:	e8bd 4010 	ldmia.w	sp!, {r4, lr}
 8004466:	f000 b883 	b.w	8004570 <atanf>
 800446a:	1794      	asrs	r4, r2, #30
 800446c:	f004 0402 	and.w	r4, r4, #2
 8004470:	ea44 74d0 	orr.w	r4, r4, r0, lsr #31
 8004474:	b943      	cbnz	r3, 8004488 <__ieee754_atan2f+0x58>
 8004476:	2c02      	cmp	r4, #2
 8004478:	d05e      	beq.n	8004538 <__ieee754_atan2f+0x108>
 800447a:	ed9f 7a34 	vldr	s14, [pc, #208]	@ 800454c <__ieee754_atan2f+0x11c>
 800447e:	2c03      	cmp	r4, #3
 8004480:	bf08      	it	eq
 8004482:	eef0 7a47 	vmoveq.f32	s15, s14
 8004486:	e7e6      	b.n	8004456 <__ieee754_atan2f+0x26>
 8004488:	b941      	cbnz	r1, 800449c <__ieee754_atan2f+0x6c>
 800448a:	eddf 7a31 	vldr	s15, [pc, #196]	@ 8004550 <__ieee754_atan2f+0x120>
 800448e:	ed9f 7a31 	vldr	s14, [pc, #196]	@ 8004554 <__ieee754_atan2f+0x124>
 8004492:	2800      	cmp	r0, #0
 8004494:	bfa8      	it	ge
 8004496:	eef0 7a47 	vmovge.f32	s15, s14
 800449a:	e7dc      	b.n	8004456 <__ieee754_atan2f+0x26>
 800449c:	f1b1 4fff 	cmp.w	r1, #2139095040	@ 0x7f800000
 80044a0:	d110      	bne.n	80044c4 <__ieee754_atan2f+0x94>
 80044a2:	f1b3 4fff 	cmp.w	r3, #2139095040	@ 0x7f800000
 80044a6:	f104 34ff 	add.w	r4, r4, #4294967295
 80044aa:	d107      	bne.n	80044bc <__ieee754_atan2f+0x8c>
 80044ac:	2c02      	cmp	r4, #2
 80044ae:	d846      	bhi.n	800453e <__ieee754_atan2f+0x10e>
 80044b0:	4b29      	ldr	r3, [pc, #164]	@ (8004558 <__ieee754_atan2f+0x128>)
 80044b2:	eb03 0384 	add.w	r3, r3, r4, lsl #2
 80044b6:	edd3 7a00 	vldr	s15, [r3]
 80044ba:	e7cc      	b.n	8004456 <__ieee754_atan2f+0x26>
 80044bc:	2c02      	cmp	r4, #2
 80044be:	d841      	bhi.n	8004544 <__ieee754_atan2f+0x114>
 80044c0:	4b26      	ldr	r3, [pc, #152]	@ (800455c <__ieee754_atan2f+0x12c>)
 80044c2:	e7f6      	b.n	80044b2 <__ieee754_atan2f+0x82>
 80044c4:	f1b3 4fff 	cmp.w	r3, #2139095040	@ 0x7f800000
 80044c8:	d0df      	beq.n	800448a <__ieee754_atan2f+0x5a>
 80044ca:	1a5b      	subs	r3, r3, r1
 80044cc:	f1b3 5ff4 	cmp.w	r3, #511705088	@ 0x1e800000
 80044d0:	ea4f 51e3 	mov.w	r1, r3, asr #23
 80044d4:	da1a      	bge.n	800450c <__ieee754_atan2f+0xdc>
 80044d6:	2a00      	cmp	r2, #0
 80044d8:	da01      	bge.n	80044de <__ieee754_atan2f+0xae>
 80044da:	313c      	adds	r1, #60	@ 0x3c
 80044dc:	db19      	blt.n	8004512 <__ieee754_atan2f+0xe2>
 80044de:	ee87 0aa0 	vdiv.f32	s0, s15, s1
 80044e2:	f7ff fe83 	bl	80041ec <fabsf>
 80044e6:	f000 f843 	bl	8004570 <atanf>
 80044ea:	eef0 7a40 	vmov.f32	s15, s0
 80044ee:	2c01      	cmp	r4, #1
 80044f0:	d012      	beq.n	8004518 <__ieee754_atan2f+0xe8>
 80044f2:	2c02      	cmp	r4, #2
 80044f4:	d017      	beq.n	8004526 <__ieee754_atan2f+0xf6>
 80044f6:	2c00      	cmp	r4, #0
 80044f8:	d0ad      	beq.n	8004456 <__ieee754_atan2f+0x26>
 80044fa:	ed9f 7a19 	vldr	s14, [pc, #100]	@ 8004560 <__ieee754_atan2f+0x130>
 80044fe:	ee77 7a87 	vadd.f32	s15, s15, s14
 8004502:	ed9f 7a18 	vldr	s14, [pc, #96]	@ 8004564 <__ieee754_atan2f+0x134>
 8004506:	ee77 7ac7 	vsub.f32	s15, s15, s14
 800450a:	e7a4      	b.n	8004456 <__ieee754_atan2f+0x26>
 800450c:	eddf 7a11 	vldr	s15, [pc, #68]	@ 8004554 <__ieee754_atan2f+0x124>
 8004510:	e7ed      	b.n	80044ee <__ieee754_atan2f+0xbe>
 8004512:	eddf 7a15 	vldr	s15, [pc, #84]	@ 8004568 <__ieee754_atan2f+0x138>
 8004516:	e7ea      	b.n	80044ee <__ieee754_atan2f+0xbe>
 8004518:	ee17 3a90 	vmov	r3, s15
 800451c:	f103 4300 	add.w	r3, r3, #2147483648	@ 0x80000000
 8004520:	ee07 3a90 	vmov	s15, r3
 8004524:	e797      	b.n	8004456 <__ieee754_atan2f+0x26>
 8004526:	ed9f 7a0e 	vldr	s14, [pc, #56]	@ 8004560 <__ieee754_atan2f+0x130>
 800452a:	ee77 7a87 	vadd.f32	s15, s15, s14
 800452e:	ed9f 7a0d 	vldr	s14, [pc, #52]	@ 8004564 <__ieee754_atan2f+0x134>
 8004532:	ee77 7a67 	vsub.f32	s15, s14, s15
 8004536:	e78e      	b.n	8004456 <__ieee754_atan2f+0x26>
 8004538:	eddf 7a0a 	vldr	s15, [pc, #40]	@ 8004564 <__ieee754_atan2f+0x134>
 800453c:	e78b      	b.n	8004456 <__ieee754_atan2f+0x26>
 800453e:	eddf 7a0b 	vldr	s15, [pc, #44]	@ 800456c <__ieee754_atan2f+0x13c>
 8004542:	e788      	b.n	8004456 <__ieee754_atan2f+0x26>
 8004544:	eddf 7a08 	vldr	s15, [pc, #32]	@ 8004568 <__ieee754_atan2f+0x138>
 8004548:	e785      	b.n	8004456 <__ieee754_atan2f+0x26>
 800454a:	bf00      	nop
 800454c:	c0490fdb 	.word	0xc0490fdb
 8004550:	bfc90fdb 	.word	0xbfc90fdb
 8004554:	3fc90fdb 	.word	0x3fc90fdb
 8004558:	08004830 	.word	0x08004830
 800455c:	08004824 	.word	0x08004824
 8004560:	33bbbd2e 	.word	0x33bbbd2e
 8004564:	40490fdb 	.word	0x40490fdb
 8004568:	00000000 	.word	0x00000000
 800456c:	3f490fdb 	.word	0x3f490fdb

08004570 <atanf>:
 8004570:	b538      	push	{r3, r4, r5, lr}
 8004572:	ee10 5a10 	vmov	r5, s0
 8004576:	f025 4400 	bic.w	r4, r5, #2147483648	@ 0x80000000
 800457a:	f1b4 4fa1 	cmp.w	r4, #1350565888	@ 0x50800000
 800457e:	eef0 7a40 	vmov.f32	s15, s0
 8004582:	d310      	bcc.n	80045a6 <atanf+0x36>
 8004584:	f1b4 4fff 	cmp.w	r4, #2139095040	@ 0x7f800000
 8004588:	d904      	bls.n	8004594 <atanf+0x24>
 800458a:	ee70 7a00 	vadd.f32	s15, s0, s0
 800458e:	eeb0 0a67 	vmov.f32	s0, s15
 8004592:	bd38      	pop	{r3, r4, r5, pc}
 8004594:	eddf 7a4d 	vldr	s15, [pc, #308]	@ 80046cc <atanf+0x15c>
 8004598:	ed9f 7a4d 	vldr	s14, [pc, #308]	@ 80046d0 <atanf+0x160>
 800459c:	2d00      	cmp	r5, #0
 800459e:	bfc8      	it	gt
 80045a0:	eef0 7a47 	vmovgt.f32	s15, s14
 80045a4:	e7f3      	b.n	800458e <atanf+0x1e>
 80045a6:	4b4b      	ldr	r3, [pc, #300]	@ (80046d4 <atanf+0x164>)
 80045a8:	429c      	cmp	r4, r3
 80045aa:	d810      	bhi.n	80045ce <atanf+0x5e>
 80045ac:	f1b4 5f44 	cmp.w	r4, #822083584	@ 0x31000000
 80045b0:	d20a      	bcs.n	80045c8 <atanf+0x58>
 80045b2:	ed9f 7a49 	vldr	s14, [pc, #292]	@ 80046d8 <atanf+0x168>
 80045b6:	ee30 7a07 	vadd.f32	s14, s0, s14
 80045ba:	eef7 6a00 	vmov.f32	s13, #112	@ 0x3f800000  1.0
 80045be:	eeb4 7ae6 	vcmpe.f32	s14, s13
 80045c2:	eef1 fa10 	vmrs	APSR_nzcv, fpscr
 80045c6:	dce2      	bgt.n	800458e <atanf+0x1e>
 80045c8:	f04f 33ff 	mov.w	r3, #4294967295
 80045cc:	e013      	b.n	80045f6 <atanf+0x86>
 80045ce:	f7ff fe0d 	bl	80041ec <fabsf>
 80045d2:	4b42      	ldr	r3, [pc, #264]	@ (80046dc <atanf+0x16c>)
 80045d4:	429c      	cmp	r4, r3
 80045d6:	d84f      	bhi.n	8004678 <atanf+0x108>
 80045d8:	f5a3 03d0 	sub.w	r3, r3, #6815744	@ 0x680000
 80045dc:	429c      	cmp	r4, r3
 80045de:	d841      	bhi.n	8004664 <atanf+0xf4>
 80045e0:	eef0 7a00 	vmov.f32	s15, #0	@ 0x40000000  2.0
 80045e4:	eebf 7a00 	vmov.f32	s14, #240	@ 0xbf800000 -1.0
 80045e8:	eea0 7a27 	vfma.f32	s14, s0, s15
 80045ec:	2300      	movs	r3, #0
 80045ee:	ee30 0a27 	vadd.f32	s0, s0, s15
 80045f2:	eec7 7a00 	vdiv.f32	s15, s14, s0
 80045f6:	1c5a      	adds	r2, r3, #1
 80045f8:	ee27 6aa7 	vmul.f32	s12, s15, s15
 80045fc:	ed9f 7a38 	vldr	s14, [pc, #224]	@ 80046e0 <atanf+0x170>
 8004600:	eddf 5a38 	vldr	s11, [pc, #224]	@ 80046e4 <atanf+0x174>
 8004604:	ed9f 5a38 	vldr	s10, [pc, #224]	@ 80046e8 <atanf+0x178>
 8004608:	ee66 6a06 	vmul.f32	s13, s12, s12
 800460c:	eee6 5a87 	vfma.f32	s11, s13, s14
 8004610:	ed9f 7a36 	vldr	s14, [pc, #216]	@ 80046ec <atanf+0x17c>
 8004614:	eea5 7aa6 	vfma.f32	s14, s11, s13
 8004618:	eddf 5a35 	vldr	s11, [pc, #212]	@ 80046f0 <atanf+0x180>
 800461c:	eee7 5a26 	vfma.f32	s11, s14, s13
 8004620:	ed9f 7a34 	vldr	s14, [pc, #208]	@ 80046f4 <atanf+0x184>
 8004624:	eea5 7aa6 	vfma.f32	s14, s11, s13
 8004628:	eddf 5a33 	vldr	s11, [pc, #204]	@ 80046f8 <atanf+0x188>
 800462c:	eee7 5a26 	vfma.f32	s11, s14, s13
 8004630:	ed9f 7a32 	vldr	s14, [pc, #200]	@ 80046fc <atanf+0x18c>
 8004634:	eea6 5a87 	vfma.f32	s10, s13, s14
 8004638:	ed9f 7a31 	vldr	s14, [pc, #196]	@ 8004700 <atanf+0x190>
 800463c:	eea5 7a26 	vfma.f32	s14, s10, s13
 8004640:	ed9f 5a30 	vldr	s10, [pc, #192]	@ 8004704 <atanf+0x194>
 8004644:	eea7 5a26 	vfma.f32	s10, s14, s13
 8004648:	ed9f 7a2f 	vldr	s14, [pc, #188]	@ 8004708 <atanf+0x198>
 800464c:	eea5 7a26 	vfma.f32	s14, s10, s13
 8004650:	ee27 7a26 	vmul.f32	s14, s14, s13
 8004654:	eea5 7a86 	vfma.f32	s14, s11, s12
 8004658:	ee27 7a87 	vmul.f32	s14, s15, s14
 800465c:	d121      	bne.n	80046a2 <atanf+0x132>
 800465e:	ee77 7ac7 	vsub.f32	s15, s15, s14
 8004662:	e794      	b.n	800458e <atanf+0x1e>
 8004664:	eef7 7a00 	vmov.f32	s15, #112	@ 0x3f800000  1.0
 8004668:	ee30 7a67 	vsub.f32	s14, s0, s15
 800466c:	ee30 0a27 	vadd.f32	s0, s0, s15
 8004670:	2301      	movs	r3, #1
 8004672:	eec7 7a00 	vdiv.f32	s15, s14, s0
 8004676:	e7be      	b.n	80045f6 <atanf+0x86>
 8004678:	4b24      	ldr	r3, [pc, #144]	@ (800470c <atanf+0x19c>)
 800467a:	429c      	cmp	r4, r3
 800467c:	d80b      	bhi.n	8004696 <atanf+0x126>
 800467e:	eef7 7a08 	vmov.f32	s15, #120	@ 0x3fc00000  1.5
 8004682:	eeb7 7a00 	vmov.f32	s14, #112	@ 0x3f800000  1.0
 8004686:	eea0 7a27 	vfma.f32	s14, s0, s15
 800468a:	2302      	movs	r3, #2
 800468c:	ee70 6a67 	vsub.f32	s13, s0, s15
 8004690:	eec6 7a87 	vdiv.f32	s15, s13, s14
 8004694:	e7af      	b.n	80045f6 <atanf+0x86>
 8004696:	eebf 7a00 	vmov.f32	s14, #240	@ 0xbf800000 -1.0
 800469a:	eec7 7a00 	vdiv.f32	s15, s14, s0
 800469e:	2303      	movs	r3, #3
 80046a0:	e7a9      	b.n	80045f6 <atanf+0x86>
 80046a2:	4a1b      	ldr	r2, [pc, #108]	@ (8004710 <atanf+0x1a0>)
 80046a4:	491b      	ldr	r1, [pc, #108]	@ (8004714 <atanf+0x1a4>)
 80046a6:	eb02 0283 	add.w	r2, r2, r3, lsl #2
 80046aa:	eb01 0383 	add.w	r3, r1, r3, lsl #2
 80046ae:	edd3 6a00 	vldr	s13, [r3]
 80046b2:	ee37 7a66 	vsub.f32	s14, s14, s13
 80046b6:	2d00      	cmp	r5, #0
 80046b8:	ee37 7a67 	vsub.f32	s14, s14, s15
 80046bc:	edd2 7a00 	vldr	s15, [r2]
 80046c0:	ee77 7ac7 	vsub.f32	s15, s15, s14
 80046c4:	bfb8      	it	lt
 80046c6:	eef1 7a67 	vneglt.f32	s15, s15
 80046ca:	e760      	b.n	800458e <atanf+0x1e>
 80046cc:	bfc90fdb 	.word	0xbfc90fdb
 80046d0:	3fc90fdb 	.word	0x3fc90fdb
 80046d4:	3edfffff 	.word	0x3edfffff
 80046d8:	7149f2ca 	.word	0x7149f2ca
 80046dc:	3f97ffff 	.word	0x3f97ffff
 80046e0:	3c8569d7 	.word	0x3c8569d7
 80046e4:	3d4bda59 	.word	0x3d4bda59
 80046e8:	bd6ef16b 	.word	0xbd6ef16b
 80046ec:	3d886b35 	.word	0x3d886b35
 80046f0:	3dba2e6e 	.word	0x3dba2e6e
 80046f4:	3e124925 	.word	0x3e124925
 80046f8:	3eaaaaab 	.word	0x3eaaaaab
 80046fc:	bd15a221 	.word	0xbd15a221
 8004700:	bd9d8795 	.word	0xbd9d8795
 8004704:	bde38e38 	.word	0xbde38e38
 8004708:	be4ccccd 	.word	0xbe4ccccd
 800470c:	401bffff 	.word	0x401bffff
 8004710:	0800484c 	.word	0x0800484c
 8004714:	0800483c 	.word	0x0800483c

08004718 <_init>:
 8004718:	b5f8      	push	{r3, r4, r5, r6, r7, lr}
 800471a:	bf00      	nop
 800471c:	bcf8      	pop	{r3, r4, r5, r6, r7}
 800471e:	bc08      	pop	{r3}
 8004720:	469e      	mov	lr, r3
 8004722:	4770      	bx	lr

08004724 <_fini>:
 8004724:	b5f8      	push	{r3, r4, r5, r6, r7, lr}
 8004726:	bf00      	nop
 8004728:	bcf8      	pop	{r3, r4, r5, r6, r7}
 800472a:	bc08      	pop	{r3}
 800472c:	469e      	mov	lr, r3
 800472e:	4770      	bx	lr
